Archive member included to satisfy reference by file (symbol)

/usr/lib/gcc/arm-none-eabi/6.2.0/../../../../arm-none-eabi/lib/armv7e-m/fpu/libm.a(lib_a-s_cos.o)
                              ./APP/app.o (cos)
/usr/lib/gcc/arm-none-eabi/6.2.0/../../../../arm-none-eabi/lib/armv7e-m/fpu/libm.a(lib_a-s_sin.o)
                              ./APP/app.o (sin)
/usr/lib/gcc/arm-none-eabi/6.2.0/../../../../arm-none-eabi/lib/armv7e-m/fpu/libm.a(lib_a-w_exp.o)
                              ./APP/app.o (exp)
/usr/lib/gcc/arm-none-eabi/6.2.0/../../../../arm-none-eabi/lib/armv7e-m/fpu/libm.a(lib_a-e_exp.o)
                              /usr/lib/gcc/arm-none-eabi/6.2.0/../../../../arm-none-eabi/lib/armv7e-m/fpu/libm.a(lib_a-w_exp.o) (__ieee754_exp)
/usr/lib/gcc/arm-none-eabi/6.2.0/../../../../arm-none-eabi/lib/armv7e-m/fpu/libm.a(lib_a-e_rem_pio2.o)
                              /usr/lib/gcc/arm-none-eabi/6.2.0/../../../../arm-none-eabi/lib/armv7e-m/fpu/libm.a(lib_a-s_cos.o) (__ieee754_rem_pio2)
/usr/lib/gcc/arm-none-eabi/6.2.0/../../../../arm-none-eabi/lib/armv7e-m/fpu/libm.a(lib_a-k_cos.o)
                              /usr/lib/gcc/arm-none-eabi/6.2.0/../../../../arm-none-eabi/lib/armv7e-m/fpu/libm.a(lib_a-s_cos.o) (__kernel_cos)
/usr/lib/gcc/arm-none-eabi/6.2.0/../../../../arm-none-eabi/lib/armv7e-m/fpu/libm.a(lib_a-k_rem_pio2.o)
                              /usr/lib/gcc/arm-none-eabi/6.2.0/../../../../arm-none-eabi/lib/armv7e-m/fpu/libm.a(lib_a-e_rem_pio2.o) (__kernel_rem_pio2)
/usr/lib/gcc/arm-none-eabi/6.2.0/../../../../arm-none-eabi/lib/armv7e-m/fpu/libm.a(lib_a-k_sin.o)
                              /usr/lib/gcc/arm-none-eabi/6.2.0/../../../../arm-none-eabi/lib/armv7e-m/fpu/libm.a(lib_a-s_cos.o) (__kernel_sin)
/usr/lib/gcc/arm-none-eabi/6.2.0/../../../../arm-none-eabi/lib/armv7e-m/fpu/libm.a(lib_a-s_fabs.o)
                              /usr/lib/gcc/arm-none-eabi/6.2.0/../../../../arm-none-eabi/lib/armv7e-m/fpu/libm.a(lib_a-e_rem_pio2.o) (fabs)
/usr/lib/gcc/arm-none-eabi/6.2.0/../../../../arm-none-eabi/lib/armv7e-m/fpu/libm.a(lib_a-s_finite.o)
                              /usr/lib/gcc/arm-none-eabi/6.2.0/../../../../arm-none-eabi/lib/armv7e-m/fpu/libm.a(lib_a-w_exp.o) (finite)
/usr/lib/gcc/arm-none-eabi/6.2.0/../../../../arm-none-eabi/lib/armv7e-m/fpu/libm.a(lib_a-s_floor.o)
                              /usr/lib/gcc/arm-none-eabi/6.2.0/../../../../arm-none-eabi/lib/armv7e-m/fpu/libm.a(lib_a-k_rem_pio2.o) (floor)
/usr/lib/gcc/arm-none-eabi/6.2.0/../../../../arm-none-eabi/lib/armv7e-m/fpu/libm.a(lib_a-s_lib_ver.o)
                              /usr/lib/gcc/arm-none-eabi/6.2.0/../../../../arm-none-eabi/lib/armv7e-m/fpu/libm.a(lib_a-w_exp.o) (__fdlib_version)
/usr/lib/gcc/arm-none-eabi/6.2.0/../../../../arm-none-eabi/lib/armv7e-m/fpu/libm.a(lib_a-s_matherr.o)
                              /usr/lib/gcc/arm-none-eabi/6.2.0/../../../../arm-none-eabi/lib/armv7e-m/fpu/libm.a(lib_a-w_exp.o) (matherr)
/usr/lib/gcc/arm-none-eabi/6.2.0/../../../../arm-none-eabi/lib/armv7e-m/fpu/libm.a(lib_a-s_scalbn.o)
                              /usr/lib/gcc/arm-none-eabi/6.2.0/../../../../arm-none-eabi/lib/armv7e-m/fpu/libm.a(lib_a-k_rem_pio2.o) (scalbn)
/usr/lib/gcc/arm-none-eabi/6.2.0/../../../../arm-none-eabi/lib/armv7e-m/fpu/libm.a(lib_a-s_copysign.o)
                              /usr/lib/gcc/arm-none-eabi/6.2.0/../../../../arm-none-eabi/lib/armv7e-m/fpu/libm.a(lib_a-s_scalbn.o) (copysign)
/usr/lib/gcc/arm-none-eabi/6.2.0/armv7e-m/fpu/libgcc.a(_arm_addsubdf3.o)
                              ./APP/app.o (__aeabi_dsub)
/usr/lib/gcc/arm-none-eabi/6.2.0/armv7e-m/fpu/libgcc.a(_arm_muldivdf3.o)
                              ./APP/app.o (__aeabi_dmul)
/usr/lib/gcc/arm-none-eabi/6.2.0/armv7e-m/fpu/libgcc.a(_arm_cmpdf2.o)
                              /usr/lib/gcc/arm-none-eabi/6.2.0/../../../../arm-none-eabi/lib/armv7e-m/fpu/libm.a(lib_a-e_rem_pio2.o) (__aeabi_dcmpeq)
/usr/lib/gcc/arm-none-eabi/6.2.0/armv7e-m/fpu/libgcc.a(_arm_fixdfsi.o)
                              /usr/lib/gcc/arm-none-eabi/6.2.0/../../../../arm-none-eabi/lib/armv7e-m/fpu/libm.a(lib_a-e_exp.o) (__aeabi_d2iz)
/usr/lib/gcc/arm-none-eabi/6.2.0/armv7e-m/fpu/libgcc.a(_arm_truncdfsf2.o)
                              ./APP/app.o (__aeabi_d2f)
/usr/lib/gcc/arm-none-eabi/6.2.0/armv7e-m/fpu/libgcc.a(_aeabi_uldivmod.o)
                              ./BSP/cpu_bsp.o (__aeabi_uldivmod)
/usr/lib/gcc/arm-none-eabi/6.2.0/armv7e-m/fpu/libgcc.a(_udivmoddi4.o)
                              /usr/lib/gcc/arm-none-eabi/6.2.0/armv7e-m/fpu/libgcc.a(_aeabi_uldivmod.o) (__udivmoddi4)
/usr/lib/gcc/arm-none-eabi/6.2.0/armv7e-m/fpu/libgcc.a(_dvmd_tls.o)
                              /usr/lib/gcc/arm-none-eabi/6.2.0/armv7e-m/fpu/libgcc.a(_aeabi_uldivmod.o) (__aeabi_ldiv0)
/usr/lib/gcc/arm-none-eabi/6.2.0/../../../../arm-none-eabi/lib/armv7e-m/fpu/libg_nano.a(lib_a-assert.o)
                              ./KSDK/platform/system/interrupt/src/fsl_interrupt_manager.o (__assert_func)
/usr/lib/gcc/arm-none-eabi/6.2.0/../../../../arm-none-eabi/lib/armv7e-m/fpu/libg_nano.a(lib_a-atexit.o)
                              /usr/lib/gcc/arm-none-eabi/6.2.0/../../../../arm-none-eabi/lib/armv7e-m/fpu/crt0.o (atexit)
/usr/lib/gcc/arm-none-eabi/6.2.0/../../../../arm-none-eabi/lib/armv7e-m/fpu/libg_nano.a(lib_a-calloc.o)
                              ./KSDK/platform/osa/src/fsl_os_abstraction_ucosiii.o (calloc)
/usr/lib/gcc/arm-none-eabi/6.2.0/../../../../arm-none-eabi/lib/armv7e-m/fpu/libg_nano.a(lib_a-errno.o)
                              /usr/lib/gcc/arm-none-eabi/6.2.0/../../../../arm-none-eabi/lib/armv7e-m/fpu/libm.a(lib_a-w_exp.o) (__errno)
/usr/lib/gcc/arm-none-eabi/6.2.0/../../../../arm-none-eabi/lib/armv7e-m/fpu/libg_nano.a(lib_a-exit.o)
                              /usr/lib/gcc/arm-none-eabi/6.2.0/../../../../arm-none-eabi/lib/armv7e-m/fpu/crt0.o (exit)
/usr/lib/gcc/arm-none-eabi/6.2.0/../../../../arm-none-eabi/lib/armv7e-m/fpu/libg_nano.a(lib_a-fini.o)
                              /usr/lib/gcc/arm-none-eabi/6.2.0/../../../../arm-none-eabi/lib/armv7e-m/fpu/crt0.o (__libc_fini_array)
/usr/lib/gcc/arm-none-eabi/6.2.0/../../../../arm-none-eabi/lib/armv7e-m/fpu/libg_nano.a(lib_a-fprintf.o)
                              /usr/lib/gcc/arm-none-eabi/6.2.0/../../../../arm-none-eabi/lib/armv7e-m/fpu/libg_nano.a(lib_a-assert.o) (fiprintf)
/usr/lib/gcc/arm-none-eabi/6.2.0/../../../../arm-none-eabi/lib/armv7e-m/fpu/libg_nano.a(lib_a-impure.o)
                              /usr/lib/gcc/arm-none-eabi/6.2.0/../../../../arm-none-eabi/lib/armv7e-m/fpu/libg_nano.a(lib_a-exit.o) (_global_impure_ptr)
/usr/lib/gcc/arm-none-eabi/6.2.0/../../../../arm-none-eabi/lib/armv7e-m/fpu/libg_nano.a(lib_a-init.o)
                              /usr/lib/gcc/arm-none-eabi/6.2.0/../../../../arm-none-eabi/lib/armv7e-m/fpu/crt0.o (__libc_init_array)
/usr/lib/gcc/arm-none-eabi/6.2.0/../../../../arm-none-eabi/lib/armv7e-m/fpu/libg_nano.a(lib_a-malloc.o)
                              ./KSDK/platform/osa/src/fsl_os_abstraction_ucosiii.o (malloc)
/usr/lib/gcc/arm-none-eabi/6.2.0/../../../../arm-none-eabi/lib/armv7e-m/fpu/libg_nano.a(lib_a-memset.o)
                              /usr/lib/gcc/arm-none-eabi/6.2.0/../../../../arm-none-eabi/lib/armv7e-m/fpu/crt0.o (memset)
/usr/lib/gcc/arm-none-eabi/6.2.0/../../../../arm-none-eabi/lib/armv7e-m/fpu/libg_nano.a(lib_a-nano-callocr.o)
                              /usr/lib/gcc/arm-none-eabi/6.2.0/../../../../arm-none-eabi/lib/armv7e-m/fpu/libg_nano.a(lib_a-calloc.o) (_calloc_r)
/usr/lib/gcc/arm-none-eabi/6.2.0/../../../../arm-none-eabi/lib/armv7e-m/fpu/libg_nano.a(lib_a-nano-freer.o)
                              /usr/lib/gcc/arm-none-eabi/6.2.0/../../../../arm-none-eabi/lib/armv7e-m/fpu/libg_nano.a(lib_a-malloc.o) (_free_r)
/usr/lib/gcc/arm-none-eabi/6.2.0/../../../../arm-none-eabi/lib/armv7e-m/fpu/libg_nano.a(lib_a-nano-mallocr.o)
                              /usr/lib/gcc/arm-none-eabi/6.2.0/../../../../arm-none-eabi/lib/armv7e-m/fpu/libg_nano.a(lib_a-malloc.o) (_malloc_r)
/usr/lib/gcc/arm-none-eabi/6.2.0/../../../../arm-none-eabi/lib/armv7e-m/fpu/libg_nano.a(lib_a-nano-vfprintf.o)
                              /usr/lib/gcc/arm-none-eabi/6.2.0/../../../../arm-none-eabi/lib/armv7e-m/fpu/libg_nano.a(lib_a-fprintf.o) (_vfprintf_r)
/usr/lib/gcc/arm-none-eabi/6.2.0/../../../../arm-none-eabi/lib/armv7e-m/fpu/libg_nano.a(lib_a-nano-vfprintf_i.o)
                              /usr/lib/gcc/arm-none-eabi/6.2.0/../../../../arm-none-eabi/lib/armv7e-m/fpu/libg_nano.a(lib_a-nano-vfprintf.o) (_printf_i)
/usr/lib/gcc/arm-none-eabi/6.2.0/../../../../arm-none-eabi/lib/armv7e-m/fpu/libg_nano.a(lib_a-sbrkr.o)
                              /usr/lib/gcc/arm-none-eabi/6.2.0/../../../../arm-none-eabi/lib/armv7e-m/fpu/libg_nano.a(lib_a-nano-mallocr.o) (_sbrk_r)
/usr/lib/gcc/arm-none-eabi/6.2.0/../../../../arm-none-eabi/lib/armv7e-m/fpu/libg_nano.a(lib_a-vsprintf.o)
                              ./BSP/bsp_ser.o (vsprintf)
/usr/lib/gcc/arm-none-eabi/6.2.0/../../../../arm-none-eabi/lib/armv7e-m/fpu/libg_nano.a(lib_a-wbuf.o)
                              /usr/lib/gcc/arm-none-eabi/6.2.0/../../../../arm-none-eabi/lib/armv7e-m/fpu/libg_nano.a(lib_a-nano-vfprintf.o) (__swbuf_r)
/usr/lib/gcc/arm-none-eabi/6.2.0/../../../../arm-none-eabi/lib/armv7e-m/fpu/libg_nano.a(lib_a-wsetup.o)
                              /usr/lib/gcc/arm-none-eabi/6.2.0/../../../../arm-none-eabi/lib/armv7e-m/fpu/libg_nano.a(lib_a-nano-vfprintf.o) (__swsetup_r)
/usr/lib/gcc/arm-none-eabi/6.2.0/../../../../arm-none-eabi/lib/armv7e-m/fpu/libg_nano.a(lib_a-__atexit.o)
                              /usr/lib/gcc/arm-none-eabi/6.2.0/../../../../arm-none-eabi/lib/armv7e-m/fpu/libg_nano.a(lib_a-atexit.o) (__register_exitproc)
/usr/lib/gcc/arm-none-eabi/6.2.0/../../../../arm-none-eabi/lib/armv7e-m/fpu/libg_nano.a(lib_a-__call_atexit.o)
                              /usr/lib/gcc/arm-none-eabi/6.2.0/../../../../arm-none-eabi/lib/armv7e-m/fpu/libg_nano.a(lib_a-__atexit.o) (__call_exitprocs)
/usr/lib/gcc/arm-none-eabi/6.2.0/../../../../arm-none-eabi/lib/armv7e-m/fpu/libg_nano.a(lib_a-abort.o)
                              /usr/lib/gcc/arm-none-eabi/6.2.0/../../../../arm-none-eabi/lib/armv7e-m/fpu/libg_nano.a(lib_a-assert.o) (abort)
/usr/lib/gcc/arm-none-eabi/6.2.0/../../../../arm-none-eabi/lib/armv7e-m/fpu/libg_nano.a(lib_a-fflush.o)
                              /usr/lib/gcc/arm-none-eabi/6.2.0/../../../../arm-none-eabi/lib/armv7e-m/fpu/libg_nano.a(lib_a-wbuf.o) (_fflush_r)
/usr/lib/gcc/arm-none-eabi/6.2.0/../../../../arm-none-eabi/lib/armv7e-m/fpu/libg_nano.a(lib_a-findfp.o)
                              /usr/lib/gcc/arm-none-eabi/6.2.0/../../../../arm-none-eabi/lib/armv7e-m/fpu/libg_nano.a(lib_a-nano-vfprintf.o) (__sinit)
/usr/lib/gcc/arm-none-eabi/6.2.0/../../../../arm-none-eabi/lib/armv7e-m/fpu/libg_nano.a(lib_a-fvwrite.o)
                              /usr/lib/gcc/arm-none-eabi/6.2.0/../../../../arm-none-eabi/lib/armv7e-m/fpu/libg_nano.a(lib_a-nano-vfprintf.o) (__sfvwrite_r)
/usr/lib/gcc/arm-none-eabi/6.2.0/../../../../arm-none-eabi/lib/armv7e-m/fpu/libg_nano.a(lib_a-fwalk.o)
                              /usr/lib/gcc/arm-none-eabi/6.2.0/../../../../arm-none-eabi/lib/armv7e-m/fpu/libg_nano.a(lib_a-findfp.o) (_fwalk)
/usr/lib/gcc/arm-none-eabi/6.2.0/../../../../arm-none-eabi/lib/armv7e-m/fpu/libg_nano.a(lib_a-makebuf.o)
                              /usr/lib/gcc/arm-none-eabi/6.2.0/../../../../arm-none-eabi/lib/armv7e-m/fpu/libg_nano.a(lib_a-wsetup.o) (__smakebuf_r)
/usr/lib/gcc/arm-none-eabi/6.2.0/../../../../arm-none-eabi/lib/armv7e-m/fpu/libg_nano.a(lib_a-memchr.o)
                              /usr/lib/gcc/arm-none-eabi/6.2.0/../../../../arm-none-eabi/lib/armv7e-m/fpu/libg_nano.a(lib_a-nano-vfprintf.o) (memchr)
/usr/lib/gcc/arm-none-eabi/6.2.0/../../../../arm-none-eabi/lib/armv7e-m/fpu/libg_nano.a(lib_a-memcpy-stub.o)
                              /usr/lib/gcc/arm-none-eabi/6.2.0/../../../../arm-none-eabi/lib/armv7e-m/fpu/libg_nano.a(lib_a-fvwrite.o) (memcpy)
/usr/lib/gcc/arm-none-eabi/6.2.0/../../../../arm-none-eabi/lib/armv7e-m/fpu/libg_nano.a(lib_a-memmove.o)
                              /usr/lib/gcc/arm-none-eabi/6.2.0/../../../../arm-none-eabi/lib/armv7e-m/fpu/libg_nano.a(lib_a-fvwrite.o) (memmove)
/usr/lib/gcc/arm-none-eabi/6.2.0/../../../../arm-none-eabi/lib/armv7e-m/fpu/libg_nano.a(lib_a-nano-reallocr.o)
                              /usr/lib/gcc/arm-none-eabi/6.2.0/../../../../arm-none-eabi/lib/armv7e-m/fpu/libg_nano.a(lib_a-fvwrite.o) (_realloc_r)
/usr/lib/gcc/arm-none-eabi/6.2.0/../../../../arm-none-eabi/lib/armv7e-m/fpu/libg_nano.a(lib_a-nano-svfprintf.o)
                              /usr/lib/gcc/arm-none-eabi/6.2.0/../../../../arm-none-eabi/lib/armv7e-m/fpu/libg_nano.a(lib_a-vsprintf.o) (_svfprintf_r)
/usr/lib/gcc/arm-none-eabi/6.2.0/../../../../arm-none-eabi/lib/armv7e-m/fpu/libg_nano.a(lib_a-reent.o)
                              /usr/lib/gcc/arm-none-eabi/6.2.0/../../../../arm-none-eabi/lib/armv7e-m/fpu/libg_nano.a(lib_a-sbrkr.o) (errno)
/usr/lib/gcc/arm-none-eabi/6.2.0/../../../../arm-none-eabi/lib/armv7e-m/fpu/libg_nano.a(lib_a-signal.o)
                              /usr/lib/gcc/arm-none-eabi/6.2.0/../../../../arm-none-eabi/lib/armv7e-m/fpu/libg_nano.a(lib_a-abort.o) (raise)
/usr/lib/gcc/arm-none-eabi/6.2.0/../../../../arm-none-eabi/lib/armv7e-m/fpu/libg_nano.a(lib_a-signalr.o)
                              /usr/lib/gcc/arm-none-eabi/6.2.0/../../../../arm-none-eabi/lib/armv7e-m/fpu/libg_nano.a(lib_a-signal.o) (_kill_r)
/usr/lib/gcc/arm-none-eabi/6.2.0/../../../../arm-none-eabi/lib/armv7e-m/fpu/libg_nano.a(lib_a-stdio.o)
                              /usr/lib/gcc/arm-none-eabi/6.2.0/../../../../arm-none-eabi/lib/armv7e-m/fpu/libg_nano.a(lib_a-findfp.o) (__sread)
/usr/lib/gcc/arm-none-eabi/6.2.0/../../../../arm-none-eabi/lib/armv7e-m/fpu/libg_nano.a(lib_a-writer.o)
                              /usr/lib/gcc/arm-none-eabi/6.2.0/../../../../arm-none-eabi/lib/armv7e-m/fpu/libg_nano.a(lib_a-stdio.o) (_write_r)
/usr/lib/gcc/arm-none-eabi/6.2.0/../../../../arm-none-eabi/lib/armv7e-m/fpu/libg_nano.a(lib_a-closer.o)
                              /usr/lib/gcc/arm-none-eabi/6.2.0/../../../../arm-none-eabi/lib/armv7e-m/fpu/libg_nano.a(lib_a-stdio.o) (_close_r)
/usr/lib/gcc/arm-none-eabi/6.2.0/../../../../arm-none-eabi/lib/armv7e-m/fpu/libg_nano.a(lib_a-fstatr.o)
                              /usr/lib/gcc/arm-none-eabi/6.2.0/../../../../arm-none-eabi/lib/armv7e-m/fpu/libg_nano.a(lib_a-makebuf.o) (_fstat_r)
/usr/lib/gcc/arm-none-eabi/6.2.0/../../../../arm-none-eabi/lib/armv7e-m/fpu/libg_nano.a(lib_a-isattyr.o)
                              /usr/lib/gcc/arm-none-eabi/6.2.0/../../../../arm-none-eabi/lib/armv7e-m/fpu/libg_nano.a(lib_a-makebuf.o) (_isatty_r)
/usr/lib/gcc/arm-none-eabi/6.2.0/../../../../arm-none-eabi/lib/armv7e-m/fpu/libg_nano.a(lib_a-lseekr.o)
                              /usr/lib/gcc/arm-none-eabi/6.2.0/../../../../arm-none-eabi/lib/armv7e-m/fpu/libg_nano.a(lib_a-stdio.o) (_lseek_r)
/usr/lib/gcc/arm-none-eabi/6.2.0/../../../../arm-none-eabi/lib/armv7e-m/fpu/libg_nano.a(lib_a-nano-msizer.o)
                              /usr/lib/gcc/arm-none-eabi/6.2.0/../../../../arm-none-eabi/lib/armv7e-m/fpu/libg_nano.a(lib_a-nano-reallocr.o) (_malloc_usable_size_r)
/usr/lib/gcc/arm-none-eabi/6.2.0/../../../../arm-none-eabi/lib/armv7e-m/fpu/libg_nano.a(lib_a-readr.o)
                              /usr/lib/gcc/arm-none-eabi/6.2.0/../../../../arm-none-eabi/lib/armv7e-m/fpu/libg_nano.a(lib_a-stdio.o) (_read_r)
/usr/lib/gcc/arm-none-eabi/6.2.0/../../../../arm-none-eabi/lib/armv7e-m/fpu/libnosys.a(close.o)
                              /usr/lib/gcc/arm-none-eabi/6.2.0/../../../../arm-none-eabi/lib/armv7e-m/fpu/libg_nano.a(lib_a-closer.o) (_close)
/usr/lib/gcc/arm-none-eabi/6.2.0/../../../../arm-none-eabi/lib/armv7e-m/fpu/libnosys.a(fstat.o)
                              /usr/lib/gcc/arm-none-eabi/6.2.0/../../../../arm-none-eabi/lib/armv7e-m/fpu/libg_nano.a(lib_a-fstatr.o) (_fstat)
/usr/lib/gcc/arm-none-eabi/6.2.0/../../../../arm-none-eabi/lib/armv7e-m/fpu/libnosys.a(getpid.o)
                              /usr/lib/gcc/arm-none-eabi/6.2.0/../../../../arm-none-eabi/lib/armv7e-m/fpu/libg_nano.a(lib_a-signalr.o) (_getpid)
/usr/lib/gcc/arm-none-eabi/6.2.0/../../../../arm-none-eabi/lib/armv7e-m/fpu/libnosys.a(isatty.o)
                              /usr/lib/gcc/arm-none-eabi/6.2.0/../../../../arm-none-eabi/lib/armv7e-m/fpu/libg_nano.a(lib_a-isattyr.o) (_isatty)
/usr/lib/gcc/arm-none-eabi/6.2.0/../../../../arm-none-eabi/lib/armv7e-m/fpu/libnosys.a(kill.o)
                              /usr/lib/gcc/arm-none-eabi/6.2.0/../../../../arm-none-eabi/lib/armv7e-m/fpu/libg_nano.a(lib_a-signalr.o) (_kill)
/usr/lib/gcc/arm-none-eabi/6.2.0/../../../../arm-none-eabi/lib/armv7e-m/fpu/libnosys.a(lseek.o)
                              /usr/lib/gcc/arm-none-eabi/6.2.0/../../../../arm-none-eabi/lib/armv7e-m/fpu/libg_nano.a(lib_a-lseekr.o) (_lseek)
/usr/lib/gcc/arm-none-eabi/6.2.0/../../../../arm-none-eabi/lib/armv7e-m/fpu/libnosys.a(read.o)
                              /usr/lib/gcc/arm-none-eabi/6.2.0/../../../../arm-none-eabi/lib/armv7e-m/fpu/libg_nano.a(lib_a-readr.o) (_read)
/usr/lib/gcc/arm-none-eabi/6.2.0/../../../../arm-none-eabi/lib/armv7e-m/fpu/libnosys.a(sbrk.o)
                              /usr/lib/gcc/arm-none-eabi/6.2.0/../../../../arm-none-eabi/lib/armv7e-m/fpu/libg_nano.a(lib_a-sbrkr.o) (_sbrk)
/usr/lib/gcc/arm-none-eabi/6.2.0/../../../../arm-none-eabi/lib/armv7e-m/fpu/libnosys.a(write.o)
                              /usr/lib/gcc/arm-none-eabi/6.2.0/../../../../arm-none-eabi/lib/armv7e-m/fpu/libg_nano.a(lib_a-writer.o) (_write)
/usr/lib/gcc/arm-none-eabi/6.2.0/../../../../arm-none-eabi/lib/armv7e-m/fpu/libnosys.a(_exit.o)
                              /usr/lib/gcc/arm-none-eabi/6.2.0/../../../../arm-none-eabi/lib/armv7e-m/fpu/libg_nano.a(lib_a-exit.o) (_exit)

Allocating common symbols
Common symbol       size              file

OSSchedLockNestingCtr
                    0x1               ./uCOS-III/Source/os_var.o
OS_AppTaskReturnHookPtr
                    0x4               ./uCOS-III/Source/os_var.o
OSStatTaskTimeMax   0x4               ./uCOS-III/Source/os_var.o
OSStatTaskCtr       0x4               ./uCOS-III/Source/os_var.o
OSTaskRegNextAvailID
                    0x1               ./uCOS-III/Source/os_var.o
OSRunning           0x1               ./uCOS-III/Source/os_var.o
Mem_SegHeap         0x14              ./uC-LIB/lib_mem.o
OSRdyList           0x180             ./uCOS-III/Source/os_var.o
OSPrioHighRdy       0x1               ./uCOS-III/Source/os_var.o
errno               0x4               /usr/lib/gcc/arm-none-eabi/6.2.0/../../../../arm-none-eabi/lib/armv7e-m/fpu/libg_nano.a(lib_a-reent.o)
OSStatTaskRdy       0x1               ./uCOS-III/Source/os_var.o
OSSemDbgListPtr     0x4               ./uCOS-III/Source/os_var.o
OS_AppTaskCreateHookPtr
                    0x4               ./uCOS-III/Source/os_var.o
OSCfg_StatTaskStk   0x200             ./uCOS-III/Source/os_cfg_app.o
Mem_SegHeadPtr      0x4               ./uC-LIB/lib_mem.o
OSPrioCur           0x1               ./uCOS-III/Source/os_var.o
OSTickTaskTCB       0xc4              ./uCOS-III/Source/os_var.o
Math_RandSeedCur    0x4               ./uC-LIB/lib_math.o
OSTmrTickCtr        0x4               ./uCOS-III/Source/os_var.o
OSTCBCurPtr         0x4               ./uCOS-III/Source/os_var.o
OSCfg_MsgPool       0x640             ./uCOS-III/Source/os_cfg_app.o
OSQQty              0x2               ./uCOS-III/Source/os_var.o
OSStatTaskCPUUsageMax
                    0x2               ./uCOS-III/Source/os_var.o
OSPrioSaved         0x1               ./uCOS-III/Source/os_var.o
OSTCBHighRdyPtr     0x4               ./uCOS-III/Source/os_var.o
CPU_TS_TmrFreq_Hz   0x4               ./uC-CPU/cpu_core.o
OSTaskDbgListPtr    0x4               ./uCOS-III/Source/os_var.o
OSTmrTaskTimeMax    0x4               ./uCOS-III/Source/os_var.o
OS_AppTaskDelHookPtr
                    0x4               ./uCOS-III/Source/os_var.o
OS_AppTimeTickHookPtr
                    0x4               ./uCOS-III/Source/os_var.o
OSStatTaskCPUUsage  0x2               ./uCOS-III/Source/os_var.o
OSTaskCtxSwCtr      0x4               ./uCOS-III/Source/os_var.o
OSIntNestingCtr     0x1               ./uCOS-III/Source/os_var.o
OSTaskQty           0x2               ./uCOS-III/Source/os_var.o
OS_CPU_ExceptStkBase
                    0x4               ./uCOS-III/Ports/ARM-Cortex-M4/Generic/GNU/os_cpu_c.o
OSTmrTaskTCB        0xc4              ./uCOS-III/Source/os_var.o
OSMsgPool           0xc               ./uCOS-III/Source/os_var.o
OSIdleTaskTCB       0xc4              ./uCOS-III/Source/os_var.o
OSQDbgListPtr       0x4               ./uCOS-III/Source/os_var.o
OSSemQty            0x2               ./uCOS-III/Source/os_var.o
OSMemDbgListPtr     0x4               ./uCOS-III/Source/os_var.o
OSSchedRoundRobinDfltTimeQuanta
                    0x4               ./uCOS-III/Source/os_var.o
OSCfg_TmrTaskStk    0x200             ./uCOS-III/Source/os_cfg_app.o
OSTmrMutex          0x30              ./uCOS-III/Source/os_var.o
OS_AppIdleTaskHookPtr
                    0x4               ./uCOS-III/Source/os_var.o
OSStatTaskCtrMax    0x4               ./uCOS-III/Source/os_var.o
Mem_Heap            0x400             ./uC-LIB/lib_mem.o
OSTickCtr           0x4               ./uCOS-III/Source/os_var.o
OS_AppTaskSwHookPtr
                    0x4               ./uCOS-III/Source/os_var.o
OSTmrQty            0x2               ./uCOS-III/Source/os_var.o
OSCfg_ISRStk        0x200             ./uCOS-III/Source/os_cfg_app.o
OSIdleTaskCtr       0x4               ./uCOS-III/Source/os_var.o
OSStatTaskCtrRun    0x4               ./uCOS-III/Source/os_var.o
OS_AppStatTaskHookPtr
                    0x4               ./uCOS-III/Source/os_var.o
OSCfg_TickTaskStk   0x200             ./uCOS-III/Source/os_cfg_app.o
OSFlagQty           0x2               ./uCOS-III/Source/os_var.o
OSFlagDbgListPtr    0x4               ./uCOS-III/Source/os_var.o
OSStatResetFlag     0x1               ./uCOS-III/Source/os_var.o
OSMemQty            0x2               ./uCOS-III/Source/os_var.o
OSMutexQty          0x2               ./uCOS-III/Source/os_var.o
OSStatTaskTCB       0xc4              ./uCOS-III/Source/os_var.o
OSTmrListPtr        0x4               ./uCOS-III/Source/os_var.o
OSPrioTbl           0x4               ./uCOS-III/Source/os_prio.o
OSTmrDbgListPtr     0x4               ./uCOS-III/Source/os_var.o
OSTickTaskTimeMax   0x4               ./uCOS-III/Source/os_var.o
OSTmrListEntries    0x2               ./uCOS-III/Source/os_var.o
OSTmrUpdateCnt      0x4               ./uCOS-III/Source/os_var.o
OSSchedRoundRobinEn
                    0x1               ./uCOS-III/Source/os_var.o
OSMutexDbgListPtr   0x4               ./uCOS-III/Source/os_var.o
OSTickListDly       0x8               ./uCOS-III/Source/os_var.o
OSTmrUpdateCtr      0x4               ./uCOS-III/Source/os_var.o
OSTickListTimeout   0x8               ./uCOS-III/Source/os_var.o
OSCfg_IdleTaskStk   0x200             ./uCOS-III/Source/os_cfg_app.o
CPU_Name            0x10              ./uC-CPU/cpu_core.o

Discarded input sections

 .text          0x0000000000000000        0x0 /usr/lib/gcc/arm-none-eabi/6.2.0/armv7e-m/fpu/crti.o
 .data          0x0000000000000000        0x0 /usr/lib/gcc/arm-none-eabi/6.2.0/armv7e-m/fpu/crti.o
 .bss           0x0000000000000000        0x0 /usr/lib/gcc/arm-none-eabi/6.2.0/armv7e-m/fpu/crti.o
 .text          0x0000000000000000        0x0 /usr/lib/gcc/arm-none-eabi/6.2.0/armv7e-m/fpu/crtbegin.o
 .data          0x0000000000000000        0x0 /usr/lib/gcc/arm-none-eabi/6.2.0/armv7e-m/fpu/crtbegin.o
 .bss           0x0000000000000000        0x0 /usr/lib/gcc/arm-none-eabi/6.2.0/armv7e-m/fpu/crtbegin.o
 .data.__dso_handle
                0x0000000000000000        0x4 /usr/lib/gcc/arm-none-eabi/6.2.0/armv7e-m/fpu/crtbegin.o
 .data          0x0000000000000000        0x0 /usr/lib/gcc/arm-none-eabi/6.2.0/../../../../arm-none-eabi/lib/armv7e-m/fpu/crt0.o
 .bss           0x0000000000000000        0x0 /usr/lib/gcc/arm-none-eabi/6.2.0/../../../../arm-none-eabi/lib/armv7e-m/fpu/crt0.o
 .ARM.extab     0x0000000000000000        0x0 /usr/lib/gcc/arm-none-eabi/6.2.0/../../../../arm-none-eabi/lib/armv7e-m/fpu/crt0.o
 .text          0x0000000000000000        0x0 ./uCOS-III/Source/os_cfg_app.o
 .data          0x0000000000000000        0x0 ./uCOS-III/Source/os_cfg_app.o
 .bss           0x0000000000000000        0x0 ./uCOS-III/Source/os_cfg_app.o
 .rodata.OSCfg_IdleTaskStkSizeRAM
                0x0000000000000000        0x4 ./uCOS-III/Source/os_cfg_app.o
 .rodata.OSCfg_IntQBasePtr
                0x0000000000000000        0x4 ./uCOS-III/Source/os_cfg_app.o
 .rodata.OSCfg_IntQSize
                0x0000000000000000        0x2 ./uCOS-III/Source/os_cfg_app.o
 .rodata.OSCfg_IntQSizeRAM
                0x0000000000000000        0x4 ./uCOS-III/Source/os_cfg_app.o
 .rodata.OSCfg_IntQTaskStkBasePtr
                0x0000000000000000        0x4 ./uCOS-III/Source/os_cfg_app.o
 .rodata.OSCfg_IntQTaskStkLimit
                0x0000000000000000        0x4 ./uCOS-III/Source/os_cfg_app.o
 .rodata.OSCfg_IntQTaskStkSize
                0x0000000000000000        0x4 ./uCOS-III/Source/os_cfg_app.o
 .rodata.OSCfg_IntQTaskStkSizeRAM
                0x0000000000000000        0x4 ./uCOS-III/Source/os_cfg_app.o
 .rodata.OSCfg_ISRStkSizeRAM
                0x0000000000000000        0x4 ./uCOS-III/Source/os_cfg_app.o
 .rodata.OSCfg_MsgPoolSizeRAM
                0x0000000000000000        0x4 ./uCOS-III/Source/os_cfg_app.o
 .rodata.OSCfg_StatTaskStkSizeRAM
                0x0000000000000000        0x4 ./uCOS-III/Source/os_cfg_app.o
 .rodata.OSCfg_TickTaskStkSizeRAM
                0x0000000000000000        0x4 ./uCOS-III/Source/os_cfg_app.o
 .rodata.OSCfg_TmrTaskStkSizeRAM
                0x0000000000000000        0x4 ./uCOS-III/Source/os_cfg_app.o
 .rodata.OSCfg_DataSizeRAM
                0x0000000000000000        0x4 ./uCOS-III/Source/os_cfg_app.o
 .text          0x0000000000000000        0x0 ./uCOS-III/Source/os_core.o
 .data          0x0000000000000000        0x0 ./uCOS-III/Source/os_core.o
 .bss           0x0000000000000000        0x0 ./uCOS-III/Source/os_core.o
 .text.OSSchedRoundRobinYield
                0x0000000000000000       0xa8 ./uCOS-III/Source/os_core.o
 .text.OSVersion
                0x0000000000000000       0x20 ./uCOS-III/Source/os_core.o
 .text.OS_PendAbort
                0x0000000000000000      0x108 ./uCOS-III/Source/os_core.o
 .text.OS_PendAbort1
                0x0000000000000000       0x50 ./uCOS-III/Source/os_core.o
 .text.OS_PendListInsertHead
                0x0000000000000000       0x54 ./uCOS-III/Source/os_core.o
 .text.OS_PendObjDel
                0x0000000000000000       0xfc ./uCOS-III/Source/os_core.o
 .text.OS_PendObjDel1
                0x0000000000000000       0x50 ./uCOS-III/Source/os_core.o
 .text          0x0000000000000000        0x0 ./uCOS-III/Source/os_dbg.o
 .data          0x0000000000000000        0x0 ./uCOS-III/Source/os_dbg.o
 .bss           0x0000000000000000        0x0 ./uCOS-III/Source/os_dbg.o
 .rodata.OSDbg_IntQ
                0x0000000000000000        0x2 ./uCOS-III/Source/os_dbg.o
 .rodata.OSDbg_TLS_TblSize
                0x0000000000000000        0x2 ./uCOS-III/Source/os_dbg.o
 .text          0x0000000000000000        0x0 ./uCOS-III/Source/os_flag.o
 .data          0x0000000000000000        0x0 ./uCOS-III/Source/os_flag.o
 .bss           0x0000000000000000        0x0 ./uCOS-III/Source/os_flag.o
 .text.OSFlagDel
                0x0000000000000000       0xd4 ./uCOS-III/Source/os_flag.o
 .text.OSFlagPendGetFlagsRdy
                0x0000000000000000       0x30 ./uCOS-III/Source/os_flag.o
 .text.OS_FlagClr
                0x0000000000000000       0x34 ./uCOS-III/Source/os_flag.o
 .text.OS_FlagDbgListRemove
                0x0000000000000000       0x70 ./uCOS-III/Source/os_flag.o
 .text          0x0000000000000000        0x0 ./uCOS-III/Source/os_int.o
 .data          0x0000000000000000        0x0 ./uCOS-III/Source/os_int.o
 .bss           0x0000000000000000        0x0 ./uCOS-III/Source/os_int.o
 .debug_info    0x0000000000000000       0x6e ./uCOS-III/Source/os_int.o
 .debug_abbrev  0x0000000000000000       0x24 ./uCOS-III/Source/os_int.o
 .debug_aranges
                0x0000000000000000       0x18 ./uCOS-III/Source/os_int.o
 .debug_line    0x0000000000000000       0x1d ./uCOS-III/Source/os_int.o
 .debug_str     0x0000000000000000      0x1fe ./uCOS-III/Source/os_int.o
 .comment       0x0000000000000000       0x71 ./uCOS-III/Source/os_int.o
 .ARM.attributes
                0x0000000000000000       0x39 ./uCOS-III/Source/os_int.o
 .text          0x0000000000000000        0x0 ./uCOS-III/Source/os_mem.o
 .data          0x0000000000000000        0x0 ./uCOS-III/Source/os_mem.o
 .bss           0x0000000000000000        0x0 ./uCOS-III/Source/os_mem.o
 .text.OSMemCreate
                0x0000000000000000       0xa0 ./uCOS-III/Source/os_mem.o
 .text.OSMemGet
                0x0000000000000000       0x54 ./uCOS-III/Source/os_mem.o
 .text.OSMemPut
                0x0000000000000000       0x54 ./uCOS-III/Source/os_mem.o
 .text.OS_MemDbgListAdd
                0x0000000000000000       0x44 ./uCOS-III/Source/os_mem.o
 .text          0x0000000000000000        0x0 ./uCOS-III/Source/os_msg.o
 .data          0x0000000000000000        0x0 ./uCOS-III/Source/os_msg.o
 .bss           0x0000000000000000        0x0 ./uCOS-III/Source/os_msg.o
 .text          0x0000000000000000        0x0 ./uCOS-III/Source/os_mutex.o
 .data          0x0000000000000000        0x0 ./uCOS-III/Source/os_mutex.o
 .bss           0x0000000000000000        0x0 ./uCOS-III/Source/os_mutex.o
 .text.OSMutexDel
                0x0000000000000000      0x12c ./uCOS-III/Source/os_mutex.o
 .text.OS_MutexClr
                0x0000000000000000       0x48 ./uCOS-III/Source/os_mutex.o
 .text.OS_MutexDbgListRemove
                0x0000000000000000       0x70 ./uCOS-III/Source/os_mutex.o
 .text          0x0000000000000000        0x0 ./uCOS-III/Source/os_pend_multi.o
 .data          0x0000000000000000        0x0 ./uCOS-III/Source/os_pend_multi.o
 .bss           0x0000000000000000        0x0 ./uCOS-III/Source/os_pend_multi.o
 .text.OSPendMulti
                0x0000000000000000      0x110 ./uCOS-III/Source/os_pend_multi.o
 .text.OS_PendMultiGetRdy
                0x0000000000000000       0xec ./uCOS-III/Source/os_pend_multi.o
 .text.OS_PendMultiValidate
                0x0000000000000000       0x84 ./uCOS-III/Source/os_pend_multi.o
 .text.OS_PendMultiWait
                0x0000000000000000       0xb0 ./uCOS-III/Source/os_pend_multi.o
 .debug_info    0x0000000000000000      0xfc1 ./uCOS-III/Source/os_pend_multi.o
 .debug_abbrev  0x0000000000000000      0x192 ./uCOS-III/Source/os_pend_multi.o
 .debug_aranges
                0x0000000000000000       0x38 ./uCOS-III/Source/os_pend_multi.o
 .debug_ranges  0x0000000000000000       0x28 ./uCOS-III/Source/os_pend_multi.o
 .debug_line    0x0000000000000000      0x3ea ./uCOS-III/Source/os_pend_multi.o
 .debug_str     0x0000000000000000     0x13d5 ./uCOS-III/Source/os_pend_multi.o
 .comment       0x0000000000000000       0x71 ./uCOS-III/Source/os_pend_multi.o
 .ARM.attributes
                0x0000000000000000       0x39 ./uCOS-III/Source/os_pend_multi.o
 .debug_frame   0x0000000000000000       0x8c ./uCOS-III/Source/os_pend_multi.o
 .text          0x0000000000000000        0x0 ./uCOS-III/Source/os_prio.o
 .data          0x0000000000000000        0x0 ./uCOS-III/Source/os_prio.o
 .bss           0x0000000000000000        0x0 ./uCOS-III/Source/os_prio.o
 .text          0x0000000000000000        0x0 ./uCOS-III/Source/os_q.o
 .data          0x0000000000000000        0x0 ./uCOS-III/Source/os_q.o
 .bss           0x0000000000000000        0x0 ./uCOS-III/Source/os_q.o
 .text.OSQDel   0x0000000000000000       0xd4 ./uCOS-III/Source/os_q.o
 .text.OSQFlush
                0x0000000000000000       0x30 ./uCOS-III/Source/os_q.o
 .text.OSQPendAbort
                0x0000000000000000       0x84 ./uCOS-III/Source/os_q.o
 .text.OS_QClr  0x0000000000000000       0x44 ./uCOS-III/Source/os_q.o
 .text.OS_QDbgListRemove
                0x0000000000000000       0x70 ./uCOS-III/Source/os_q.o
 .text          0x0000000000000000        0x0 ./uCOS-III/Source/os_sem.o
 .data          0x0000000000000000        0x0 ./uCOS-III/Source/os_sem.o
 .bss           0x0000000000000000        0x0 ./uCOS-III/Source/os_sem.o
 .text.OSSemDel
                0x0000000000000000       0xd4 ./uCOS-III/Source/os_sem.o
 .text.OSSemPendAbort
                0x0000000000000000       0x84 ./uCOS-III/Source/os_sem.o
 .text.OSSemSet
                0x0000000000000000       0x50 ./uCOS-III/Source/os_sem.o
 .text.OS_SemClr
                0x0000000000000000       0x38 ./uCOS-III/Source/os_sem.o
 .text.OS_SemDbgListRemove
                0x0000000000000000       0x70 ./uCOS-III/Source/os_sem.o
 .text          0x0000000000000000        0x0 ./uCOS-III/Source/os_stat.o
 .data          0x0000000000000000        0x0 ./uCOS-III/Source/os_stat.o
 .bss           0x0000000000000000        0x0 ./uCOS-III/Source/os_stat.o
 .text          0x0000000000000000        0x0 ./uCOS-III/Source/os_task.o
 .data          0x0000000000000000        0x0 ./uCOS-III/Source/os_task.o
 .bss           0x0000000000000000        0x0 ./uCOS-III/Source/os_task.o
 .text.OSTaskChangePrio
                0x0000000000000000       0x8c ./uCOS-III/Source/os_task.o
 .text.OSTaskQFlush
                0x0000000000000000       0x48 ./uCOS-III/Source/os_task.o
 .text.OSTaskQPend
                0x0000000000000000      0x180 ./uCOS-III/Source/os_task.o
 .text.OSTaskQPost
                0x0000000000000000       0x2c ./uCOS-III/Source/os_task.o
 .text.OSTaskRegGet
                0x0000000000000000       0x44 ./uCOS-III/Source/os_task.o
 .text.OSTaskRegGetID
                0x0000000000000000       0x50 ./uCOS-III/Source/os_task.o
 .text.OSTaskRegSet
                0x0000000000000000       0x40 ./uCOS-III/Source/os_task.o
 .text.OSTaskSemPendAbort
                0x0000000000000000       0x88 ./uCOS-III/Source/os_task.o
 .text.OSTaskSemSet
                0x0000000000000000       0x40 ./uCOS-III/Source/os_task.o
 .text.OSTaskTimeQuantaSet
                0x0000000000000000       0x60 ./uCOS-III/Source/os_task.o
 .text.OS_TaskQPost
                0x0000000000000000       0xdc ./uCOS-III/Source/os_task.o
 .text          0x0000000000000000        0x0 ./uCOS-III/Source/os_tick.o
 .data          0x0000000000000000        0x0 ./uCOS-III/Source/os_tick.o
 .bss           0x0000000000000000        0x0 ./uCOS-III/Source/os_tick.o
 .text          0x0000000000000000        0x0 ./uCOS-III/Source/os_time.o
 .data          0x0000000000000000        0x0 ./uCOS-III/Source/os_time.o
 .bss           0x0000000000000000        0x0 ./uCOS-III/Source/os_time.o
 .text.OSTimeDlyResume
                0x0000000000000000      0x104 ./uCOS-III/Source/os_time.o
 .text.OSTimeGet
                0x0000000000000000       0x2c ./uCOS-III/Source/os_time.o
 .text.OSTimeSet
                0x0000000000000000       0x28 ./uCOS-III/Source/os_time.o
 .text          0x0000000000000000        0x0 ./uCOS-III/Source/os_tmr.o
 .data          0x0000000000000000        0x0 ./uCOS-III/Source/os_tmr.o
 .bss           0x0000000000000000        0x0 ./uCOS-III/Source/os_tmr.o
 .text.OSTmrCreate
                0x0000000000000000       0x80 ./uCOS-III/Source/os_tmr.o
 .text.OSTmrDel
                0x0000000000000000       0xb0 ./uCOS-III/Source/os_tmr.o
 .text.OSTmrRemainGet
                0x0000000000000000       0xac ./uCOS-III/Source/os_tmr.o
 .text.OSTmrStart
                0x0000000000000000       0xfc ./uCOS-III/Source/os_tmr.o
 .text.OSTmrStateGet
                0x0000000000000000       0x3c ./uCOS-III/Source/os_tmr.o
 .text.OSTmrStop
                0x0000000000000000       0xe4 ./uCOS-III/Source/os_tmr.o
 .text.OS_TmrClr
                0x0000000000000000       0x60 ./uCOS-III/Source/os_tmr.o
 .text.OS_TmrDbgListAdd
                0x0000000000000000       0x44 ./uCOS-III/Source/os_tmr.o
 .text.OS_TmrDbgListRemove
                0x0000000000000000       0x70 ./uCOS-III/Source/os_tmr.o
 .text          0x0000000000000000        0x0 ./uCOS-III/Source/os_var.o
 .data          0x0000000000000000        0x0 ./uCOS-III/Source/os_var.o
 .bss           0x0000000000000000        0x0 ./uCOS-III/Source/os_var.o
 .data          0x0000000000000000        0x0 ./uCOS-III/Ports/ARM-Cortex-M4/Generic/GNU/os_cpu_a.o
 .bss           0x0000000000000000        0x0 ./uCOS-III/Ports/ARM-Cortex-M4/Generic/GNU/os_cpu_a.o
 .text          0x0000000000000000        0x0 ./uCOS-III/Ports/ARM-Cortex-M4/Generic/GNU/os_cpu_c.o
 .data          0x0000000000000000        0x0 ./uCOS-III/Ports/ARM-Cortex-M4/Generic/GNU/os_cpu_c.o
 .bss           0x0000000000000000        0x0 ./uCOS-III/Ports/ARM-Cortex-M4/Generic/GNU/os_cpu_c.o
 .text          0x0000000000000000        0x0 ./uC-LIB/lib_ascii.o
 .data          0x0000000000000000        0x0 ./uC-LIB/lib_ascii.o
 .bss           0x0000000000000000        0x0 ./uC-LIB/lib_ascii.o
 .text.ASCII_IsAlpha
                0x0000000000000000       0x40 ./uC-LIB/lib_ascii.o
 .text.ASCII_IsAlphaNum
                0x0000000000000000       0x50 ./uC-LIB/lib_ascii.o
 .text.ASCII_IsLower
                0x0000000000000000       0x30 ./uC-LIB/lib_ascii.o
 .text.ASCII_IsUpper
                0x0000000000000000       0x30 ./uC-LIB/lib_ascii.o
 .text.ASCII_IsDig
                0x0000000000000000       0x30 ./uC-LIB/lib_ascii.o
 .text.ASCII_IsDigOct
                0x0000000000000000       0x30 ./uC-LIB/lib_ascii.o
 .text.ASCII_IsDigHex
                0x0000000000000000       0x50 ./uC-LIB/lib_ascii.o
 .text.ASCII_IsBlank
                0x0000000000000000       0x30 ./uC-LIB/lib_ascii.o
 .text.ASCII_IsSpace
                0x0000000000000000       0x50 ./uC-LIB/lib_ascii.o
 .text.ASCII_IsPrint
                0x0000000000000000       0x30 ./uC-LIB/lib_ascii.o
 .text.ASCII_IsGraph
                0x0000000000000000       0x30 ./uC-LIB/lib_ascii.o
 .text.ASCII_IsPunct
                0x0000000000000000       0x90 ./uC-LIB/lib_ascii.o
 .text.ASCII_IsCtrl
                0x0000000000000000       0x38 ./uC-LIB/lib_ascii.o
 .text.ASCII_ToLower
                0x0000000000000000       0x38 ./uC-LIB/lib_ascii.o
 .text.ASCII_ToUpper
                0x0000000000000000       0x38 ./uC-LIB/lib_ascii.o
 .text.ASCII_Cmp
                0x0000000000000000       0x48 ./uC-LIB/lib_ascii.o
 .debug_info    0x0000000000000000      0x41d ./uC-LIB/lib_ascii.o
 .debug_abbrev  0x0000000000000000       0xd2 ./uC-LIB/lib_ascii.o
 .debug_aranges
                0x0000000000000000       0x98 ./uC-LIB/lib_ascii.o
 .debug_ranges  0x0000000000000000       0x88 ./uC-LIB/lib_ascii.o
 .debug_line    0x0000000000000000      0x49e ./uC-LIB/lib_ascii.o
 .debug_str     0x0000000000000000      0x34e ./uC-LIB/lib_ascii.o
 .comment       0x0000000000000000       0x71 ./uC-LIB/lib_ascii.o
 .ARM.attributes
                0x0000000000000000       0x39 ./uC-LIB/lib_ascii.o
 .debug_frame   0x0000000000000000      0x1d4 ./uC-LIB/lib_ascii.o
 .text          0x0000000000000000        0x0 ./uC-LIB/lib_math.o
 .data          0x0000000000000000        0x0 ./uC-LIB/lib_math.o
 .bss           0x0000000000000000        0x0 ./uC-LIB/lib_math.o
 .text          0x0000000000000000        0x0 ./uC-LIB/lib_mem.o
 .data          0x0000000000000000        0x0 ./uC-LIB/lib_mem.o
 .bss           0x0000000000000000        0x0 ./uC-LIB/lib_mem.o
 .text.Mem_Move
                0x0000000000000000      0x110 ./uC-LIB/lib_mem.o
 .text.Mem_Cmp  0x0000000000000000      0x138 ./uC-LIB/lib_mem.o
 .text.Mem_HeapAlloc
                0x0000000000000000       0x4c ./uC-LIB/lib_mem.o
 .text.Mem_HeapGetSizeRem
                0x0000000000000000       0x38 ./uC-LIB/lib_mem.o
 .text.Mem_SegClr
                0x0000000000000000       0x28 ./uC-LIB/lib_mem.o
 .text.Mem_SegRemSizeGet
                0x0000000000000000       0x98 ./uC-LIB/lib_mem.o
 .text.Mem_SegAlloc
                0x0000000000000000       0x34 ./uC-LIB/lib_mem.o
 .text.Mem_SegAllocExt
                0x0000000000000000       0x34 ./uC-LIB/lib_mem.o
 .text.Mem_SegAllocHW
                0x0000000000000000       0x34 ./uC-LIB/lib_mem.o
 .text.Mem_PoolCreate
                0x0000000000000000      0x188 ./uC-LIB/lib_mem.o
 .text.Mem_PoolClr
                0x0000000000000000       0x40 ./uC-LIB/lib_mem.o
 .text.Mem_PoolBlkGet
                0x0000000000000000       0x6c ./uC-LIB/lib_mem.o
 .text.Mem_PoolBlkFree
                0x0000000000000000       0x58 ./uC-LIB/lib_mem.o
 .text.Mem_PoolBlkGetNbrAvail
                0x0000000000000000       0x2c ./uC-LIB/lib_mem.o
 .text.Mem_DynPoolCreate
                0x0000000000000000       0x34 ./uC-LIB/lib_mem.o
 .text.Mem_DynPoolCreateHW
                0x0000000000000000       0x38 ./uC-LIB/lib_mem.o
 .text.Mem_DynPoolBlkGet
                0x0000000000000000       0xb0 ./uC-LIB/lib_mem.o
 .text.Mem_DynPoolBlkFree
                0x0000000000000000       0x60 ./uC-LIB/lib_mem.o
 .text.Mem_DynPoolBlkNbrAvailGet
                0x0000000000000000       0x48 ./uC-LIB/lib_mem.o
 .text.Mem_SegOverlapChkCritical
                0x0000000000000000       0x98 ./uC-LIB/lib_mem.o
 .text.Mem_SegAllocInternal
                0x0000000000000000       0x58 ./uC-LIB/lib_mem.o
 .text.Mem_SegAllocExtCritical
                0x0000000000000000       0xbc ./uC-LIB/lib_mem.o
 .text.Mem_DynPoolCreateInternal
                0x0000000000000000      0x108 ./uC-LIB/lib_mem.o
 .text          0x0000000000000000        0x0 ./uC-LIB/lib_str.o
 .data          0x0000000000000000        0x0 ./uC-LIB/lib_str.o
 .bss           0x0000000000000000        0x0 ./uC-LIB/lib_str.o
 .rodata.Str_MultOvfThTbl_Int32U
                0x0000000000000000       0x94 ./uC-LIB/lib_str.o
 .text.Str_Copy
                0x0000000000000000       0x24 ./uC-LIB/lib_str.o
 .text.Str_Cat  0x0000000000000000       0x24 ./uC-LIB/lib_str.o
 .text.Str_Cat_N
                0x0000000000000000       0xb4 ./uC-LIB/lib_str.o
 .text.Str_Cmp  0x0000000000000000       0x28 ./uC-LIB/lib_str.o
 .text.Str_Cmp_N
                0x0000000000000000      0x130 ./uC-LIB/lib_str.o
 .text.Str_CmpIgnoreCase
                0x0000000000000000       0x28 ./uC-LIB/lib_str.o
 .text.Str_CmpIgnoreCase_N
                0x0000000000000000      0x198 ./uC-LIB/lib_str.o
 .text.Str_Char
                0x0000000000000000       0x28 ./uC-LIB/lib_str.o
 .text.Str_Char_N
                0x0000000000000000       0x94 ./uC-LIB/lib_str.o
 .text.Str_Char_Last
                0x0000000000000000       0x28 ./uC-LIB/lib_str.o
 .text.Str_Char_Last_N
                0x0000000000000000       0x84 ./uC-LIB/lib_str.o
 .text.Str_Char_Replace
                0x0000000000000000       0x34 ./uC-LIB/lib_str.o
 .text.Str_Char_Replace_N
                0x0000000000000000       0x74 ./uC-LIB/lib_str.o
 .text.Str_Str  0x0000000000000000       0x24 ./uC-LIB/lib_str.o
 .text.Str_Str_N
                0x0000000000000000       0xec ./uC-LIB/lib_str.o
 .text.Str_FmtNbr_Int32U
                0x0000000000000000       0x3c ./uC-LIB/lib_str.o
 .text.Str_FmtNbr_Int32S
                0x0000000000000000       0x58 ./uC-LIB/lib_str.o
 .text.Str_ParseNbr_Int32U
                0x0000000000000000       0x2c ./uC-LIB/lib_str.o
 .text.Str_ParseNbr_Int32S
                0x0000000000000000       0x58 ./uC-LIB/lib_str.o
 .text.Str_FmtNbr_Int32
                0x0000000000000000      0x270 ./uC-LIB/lib_str.o
 .text.Str_ParseNbr_Int32
                0x0000000000000000      0x2b0 ./uC-LIB/lib_str.o
 .data          0x0000000000000000        0x0 ./uC-CPU/ARM-Cortex-M4/GNU/cpu_a.o
 .bss           0x0000000000000000        0x0 ./uC-CPU/ARM-Cortex-M4/GNU/cpu_a.o
 .text          0x0000000000000000        0x0 ./uC-CPU/ARM-Cortex-M4/GNU/cpu_c.o
 .data          0x0000000000000000        0x0 ./uC-CPU/ARM-Cortex-M4/GNU/cpu_c.o
 .bss           0x0000000000000000        0x0 ./uC-CPU/ARM-Cortex-M4/GNU/cpu_c.o
 .text.CPU_BitBandClr
                0x0000000000000000       0x74 ./uC-CPU/ARM-Cortex-M4/GNU/cpu_c.o
 .text.CPU_BitBandSet
                0x0000000000000000       0x74 ./uC-CPU/ARM-Cortex-M4/GNU/cpu_c.o
 .text.CPU_IntSrcDis
                0x0000000000000000      0x12c ./uC-CPU/ARM-Cortex-M4/GNU/cpu_c.o
 .text.CPU_IntSrcEn
                0x0000000000000000      0x12c ./uC-CPU/ARM-Cortex-M4/GNU/cpu_c.o
 .text.CPU_IntSrcPendClr
                0x0000000000000000       0xcc ./uC-CPU/ARM-Cortex-M4/GNU/cpu_c.o
 .text.CPU_IntSrcPrioSet
                0x0000000000000000      0x220 ./uC-CPU/ARM-Cortex-M4/GNU/cpu_c.o
 .text.CPU_IntSrcPrioGet
                0x0000000000000000      0x1b8 ./uC-CPU/ARM-Cortex-M4/GNU/cpu_c.o
 .debug_info    0x0000000000000000      0x31d ./uC-CPU/ARM-Cortex-M4/GNU/cpu_c.o
 .debug_abbrev  0x0000000000000000      0x11c ./uC-CPU/ARM-Cortex-M4/GNU/cpu_c.o
 .debug_aranges
                0x0000000000000000       0x50 ./uC-CPU/ARM-Cortex-M4/GNU/cpu_c.o
 .debug_ranges  0x0000000000000000       0x40 ./uC-CPU/ARM-Cortex-M4/GNU/cpu_c.o
 .debug_line    0x0000000000000000      0x310 ./uC-CPU/ARM-Cortex-M4/GNU/cpu_c.o
 .debug_str     0x0000000000000000      0x2e0 ./uC-CPU/ARM-Cortex-M4/GNU/cpu_c.o
 .comment       0x0000000000000000       0x71 ./uC-CPU/ARM-Cortex-M4/GNU/cpu_c.o
 .ARM.attributes
                0x0000000000000000       0x39 ./uC-CPU/ARM-Cortex-M4/GNU/cpu_c.o
 .debug_frame   0x0000000000000000       0xe8 ./uC-CPU/ARM-Cortex-M4/GNU/cpu_c.o
 .text          0x0000000000000000        0x0 ./uC-CPU/cpu_core.o
 .data          0x0000000000000000        0x0 ./uC-CPU/cpu_core.o
 .bss           0x0000000000000000        0x0 ./uC-CPU/cpu_core.o
 .rodata.CPU_CntLeadZerosTbl
                0x0000000000000000      0x100 ./uC-CPU/cpu_core.o
 .rodata.CPU_EndiannessTest
                0x0000000000000000        0x4 ./uC-CPU/cpu_core.o
 .text.CPU_NameGet
                0x0000000000000000       0x44 ./uC-CPU/cpu_core.o
 .text.CPU_TS_Get32
                0x0000000000000000       0x18 ./uC-CPU/cpu_core.o
 .text.CPU_TS_Update
                0x0000000000000000        0xc ./uC-CPU/cpu_core.o
 .text.CPU_TS_TmrFreqGet
                0x0000000000000000       0x38 ./uC-CPU/cpu_core.o
 .text.CPU_CntLeadZeros08
                0x0000000000000000       0x24 ./uC-CPU/cpu_core.o
 .text.CPU_CntLeadZeros16
                0x0000000000000000       0x24 ./uC-CPU/cpu_core.o
 .text.CPU_CntLeadZeros32
                0x0000000000000000       0x1c ./uC-CPU/cpu_core.o
 .text.CPU_CntLeadZeros64
                0x0000000000000000      0x180 ./uC-CPU/cpu_core.o
 .text.CPU_CntTrailZeros08
                0x0000000000000000       0x28 ./uC-CPU/cpu_core.o
 .text.CPU_CntTrailZeros16
                0x0000000000000000       0x28 ./uC-CPU/cpu_core.o
 .text.CPU_CntTrailZeros32
                0x0000000000000000       0x24 ./uC-CPU/cpu_core.o
 .text.CPU_CntTrailZeros64
                0x0000000000000000       0x50 ./uC-CPU/cpu_core.o
 .text          0x0000000000000000        0x0 ./KSDK/platform/system/interrupt/src/fsl_interrupt_manager.o
 .data          0x0000000000000000        0x0 ./KSDK/platform/system/interrupt/src/fsl_interrupt_manager.o
 .bss           0x0000000000000000        0x0 ./KSDK/platform/system/interrupt/src/fsl_interrupt_manager.o
 .text          0x0000000000000000        0x0 ./KSDK/platform/system/clock/MK64F12/fsl_clock_K64F12.o
 .data          0x0000000000000000        0x0 ./KSDK/platform/system/clock/MK64F12/fsl_clock_K64F12.o
 .bss           0x0000000000000000        0x0 ./KSDK/platform/system/clock/MK64F12/fsl_clock_K64F12.o
 .text.CLOCK_SYS_GetDmaFreq
                0x0000000000000000       0x24 ./KSDK/platform/system/clock/MK64F12/fsl_clock_K64F12.o
 .text.CLOCK_SYS_GetDmamuxFreq
                0x0000000000000000       0x24 ./KSDK/platform/system/clock/MK64F12/fsl_clock_K64F12.o
 .text.CLOCK_SYS_GetPortFreq
                0x0000000000000000       0x24 ./KSDK/platform/system/clock/MK64F12/fsl_clock_K64F12.o
 .text.CLOCK_SYS_GetMpuFreq
                0x0000000000000000       0x24 ./KSDK/platform/system/clock/MK64F12/fsl_clock_K64F12.o
 .text.CLOCK_SYS_GetEwmFreq
                0x0000000000000000       0x24 ./KSDK/platform/system/clock/MK64F12/fsl_clock_K64F12.o
 .text.CLOCK_SYS_GetFlexbusFreq
                0x0000000000000000       0x24 ./KSDK/platform/system/clock/MK64F12/fsl_clock_K64F12.o
 .text.CLOCK_SYS_GetFtfFreq
                0x0000000000000000       0x24 ./KSDK/platform/system/clock/MK64F12/fsl_clock_K64F12.o
 .text.CLOCK_SYS_GetCrcFreq
                0x0000000000000000       0x24 ./KSDK/platform/system/clock/MK64F12/fsl_clock_K64F12.o
 .text.CLOCK_SYS_GetRngaFreq
                0x0000000000000000       0x24 ./KSDK/platform/system/clock/MK64F12/fsl_clock_K64F12.o
 .text.CLOCK_SYS_GetAdcFreq
                0x0000000000000000       0x24 ./KSDK/platform/system/clock/MK64F12/fsl_clock_K64F12.o
 .text.CLOCK_SYS_GetCmpFreq
                0x0000000000000000       0x24 ./KSDK/platform/system/clock/MK64F12/fsl_clock_K64F12.o
 .text.CLOCK_SYS_GetVrefFreq
                0x0000000000000000       0x24 ./KSDK/platform/system/clock/MK64F12/fsl_clock_K64F12.o
 .text.CLOCK_SYS_GetPdbFreq
                0x0000000000000000       0x24 ./KSDK/platform/system/clock/MK64F12/fsl_clock_K64F12.o
 .text.CLOCK_SYS_GetFtmFreq
                0x0000000000000000       0x24 ./KSDK/platform/system/clock/MK64F12/fsl_clock_K64F12.o
 .text.CLOCK_SYS_GetPitFreq
                0x0000000000000000       0x24 ./KSDK/platform/system/clock/MK64F12/fsl_clock_K64F12.o
 .text.CLOCK_SYS_GetCmtFreq
                0x0000000000000000       0x24 ./KSDK/platform/system/clock/MK64F12/fsl_clock_K64F12.o
 .text.CLOCK_SYS_GetEnetRmiiFreq
                0x0000000000000000       0x54 ./KSDK/platform/system/clock/MK64F12/fsl_clock_K64F12.o
 .text.CLOCK_SYS_GetEnetTimeStampFreq
                0x0000000000000000       0xb4 ./KSDK/platform/system/clock/MK64F12/fsl_clock_K64F12.o
 .text.CLOCK_SYS_GetUsbFreq
                0x0000000000000000       0xd8 ./KSDK/platform/system/clock/MK64F12/fsl_clock_K64F12.o
 .text.CLOCK_SYS_GetUsbdcdFreq
                0x0000000000000000       0x24 ./KSDK/platform/system/clock/MK64F12/fsl_clock_K64F12.o
 .text.CLOCK_SYS_GetSpiFreq
                0x0000000000000000       0x24 ./KSDK/platform/system/clock/MK64F12/fsl_clock_K64F12.o
 .text.CLOCK_SYS_GetI2cFreq
                0x0000000000000000       0x24 ./KSDK/platform/system/clock/MK64F12/fsl_clock_K64F12.o
 .text.CLOCK_SYS_GetSdhcFreq
                0x0000000000000000       0xb4 ./KSDK/platform/system/clock/MK64F12/fsl_clock_K64F12.o
 .text.CLOCK_SYS_GetSaiFreq
                0x0000000000000000       0x24 ./KSDK/platform/system/clock/MK64F12/fsl_clock_K64F12.o
 .text.CLOCK_SYS_GetGpioFreq
                0x0000000000000000       0x24 ./KSDK/platform/system/clock/MK64F12/fsl_clock_K64F12.o
 .text          0x0000000000000000        0x0 ./KSDK/platform/system/clock/fsl_clock_manager.o
 .data          0x0000000000000000        0x0 ./KSDK/platform/system/clock/fsl_clock_manager.o
 .bss           0x0000000000000000        0x0 ./KSDK/platform/system/clock/fsl_clock_manager.o
 .rodata.g_mcgBaseAddr
                0x0000000000000000        0x4 ./KSDK/platform/system/clock/fsl_clock_manager.o
 .text.CLOCK_SYS_SetSource
                0x0000000000000000       0x3c ./KSDK/platform/system/clock/fsl_clock_manager.o
 .text.CLOCK_SYS_GetSource
                0x0000000000000000       0x38 ./KSDK/platform/system/clock/fsl_clock_manager.o
 .text.CLOCK_SYS_SetDivider
                0x0000000000000000       0x38 ./KSDK/platform/system/clock/fsl_clock_manager.o
 .text.CLOCK_SYS_GetDivider
                0x0000000000000000       0x38 ./KSDK/platform/system/clock/fsl_clock_manager.o
 .text          0x0000000000000000        0x0 ./KSDK/platform/startup/MK64F12/system_MK64F12.o
 .data          0x0000000000000000        0x0 ./KSDK/platform/startup/MK64F12/system_MK64F12.o
 .bss           0x0000000000000000        0x0 ./KSDK/platform/startup/MK64F12/system_MK64F12.o
 .text.SystemCoreClockUpdate
                0x0000000000000000      0x270 ./KSDK/platform/startup/MK64F12/system_MK64F12.o
 .text          0x0000000000000000        0x0 ./KSDK/platform/osa/src/fsl_os_abstraction_ucosiii.o
 .data          0x0000000000000000        0x0 ./KSDK/platform/osa/src/fsl_os_abstraction_ucosiii.o
 .bss           0x0000000000000000        0x0 ./KSDK/platform/osa/src/fsl_os_abstraction_ucosiii.o
 .text.OSA_TaskCreate
                0x0000000000000000       0x78 ./KSDK/platform/osa/src/fsl_os_abstraction_ucosiii.o
 .text.OSA_TaskDestroy
                0x0000000000000000       0x28 ./KSDK/platform/osa/src/fsl_os_abstraction_ucosiii.o
 .text.OSA_TaskYield
                0x0000000000000000       0x24 ./KSDK/platform/osa/src/fsl_os_abstraction_ucosiii.o
 .text.OSA_TaskGetHandler
                0x0000000000000000       0x18 ./KSDK/platform/osa/src/fsl_os_abstraction_ucosiii.o
 .text.OSA_TaskGetPriority
                0x0000000000000000       0x20 ./KSDK/platform/osa/src/fsl_os_abstraction_ucosiii.o
 .text.OSA_TaskSetPriority
                0x0000000000000000       0x38 ./KSDK/platform/osa/src/fsl_os_abstraction_ucosiii.o
 .text.OSA_SemaDestroy
                0x0000000000000000       0x2c ./KSDK/platform/osa/src/fsl_os_abstraction_ucosiii.o
 .text.OSA_MutexCreate
                0x0000000000000000       0x30 ./KSDK/platform/osa/src/fsl_os_abstraction_ucosiii.o
 .text.OSA_MutexLock
                0x0000000000000000       0x6c ./KSDK/platform/osa/src/fsl_os_abstraction_ucosiii.o
 .text.OSA_MutexUnlock
                0x0000000000000000       0x2c ./KSDK/platform/osa/src/fsl_os_abstraction_ucosiii.o
 .text.OSA_MutexDestroy
                0x0000000000000000       0x2c ./KSDK/platform/osa/src/fsl_os_abstraction_ucosiii.o
 .text.OSA_EventCreate
                0x0000000000000000       0x3c ./KSDK/platform/osa/src/fsl_os_abstraction_ucosiii.o
 .text.OSA_EventWait
                0x0000000000000000       0x98 ./KSDK/platform/osa/src/fsl_os_abstraction_ucosiii.o
 .text.OSA_EventSet
                0x0000000000000000       0x30 ./KSDK/platform/osa/src/fsl_os_abstraction_ucosiii.o
 .text.OSA_EventClear
                0x0000000000000000       0x30 ./KSDK/platform/osa/src/fsl_os_abstraction_ucosiii.o
 .text.OSA_EventDestroy
                0x0000000000000000       0x2c ./KSDK/platform/osa/src/fsl_os_abstraction_ucosiii.o
 .text.OSA_MsgQCreate
                0x0000000000000000       0x80 ./KSDK/platform/osa/src/fsl_os_abstraction_ucosiii.o
 .text.OSA_MsgQPut
                0x0000000000000000       0x9c ./KSDK/platform/osa/src/fsl_os_abstraction_ucosiii.o
 .text.OSA_MsgQGet
                0x0000000000000000       0xb0 ./KSDK/platform/osa/src/fsl_os_abstraction_ucosiii.o
 .text.OSA_MsgQDestroy
                0x0000000000000000       0x44 ./KSDK/platform/osa/src/fsl_os_abstraction_ucosiii.o
 .text.OSA_MemAlloc
                0x0000000000000000       0x30 ./KSDK/platform/osa/src/fsl_os_abstraction_ucosiii.o
 .text.OSA_MemAllocZero
                0x0000000000000000       0x34 ./KSDK/platform/osa/src/fsl_os_abstraction_ucosiii.o
 .text.OSA_MemFree
                0x0000000000000000       0x2c ./KSDK/platform/osa/src/fsl_os_abstraction_ucosiii.o
 .text.OSA_TimeDelay
                0x0000000000000000       0x24 ./KSDK/platform/osa/src/fsl_os_abstraction_ucosiii.o
 .text.OSA_TimeGetMsec
                0x0000000000000000       0x30 ./KSDK/platform/osa/src/fsl_os_abstraction_ucosiii.o
 .text.OSA_InstallIntHandler
                0x0000000000000000       0x24 ./KSDK/platform/osa/src/fsl_os_abstraction_ucosiii.o
 .text.OSA_EnterCritical
                0x0000000000000000       0x28 ./KSDK/platform/osa/src/fsl_os_abstraction_ucosiii.o
 .text.OSA_ExitCritical
                0x0000000000000000       0x28 ./KSDK/platform/osa/src/fsl_os_abstraction_ucosiii.o
 .text          0x0000000000000000        0x0 ./KSDK/platform/hal/uart/fsl_uart_hal.o
 .data          0x0000000000000000        0x0 ./KSDK/platform/hal/uart/fsl_uart_hal.o
 .bss           0x0000000000000000        0x0 ./KSDK/platform/hal/uart/fsl_uart_hal.o
 .text.UART_HAL_GetReceiverWakeupMethod
                0x0000000000000000       0x24 ./KSDK/platform/hal/uart/fsl_uart_hal.o
 .rodata        0x0000000000000000       0xcc ./KSDK/platform/hal/uart/fsl_uart_hal.o
 .text.UART_HAL_SetBaudRateDivisor
                0x0000000000000000       0x68 ./KSDK/platform/hal/uart/fsl_uart_hal.o
 .text.UART_HAL_SetTxRxInversionCmd
                0x0000000000000000       0x3c ./KSDK/platform/hal/uart/fsl_uart_hal.o
 .text.UART_HAL_Putchar9
                0x0000000000000000       0x44 ./KSDK/platform/hal/uart/fsl_uart_hal.o
 .text.UART_HAL_Getchar9
                0x0000000000000000       0x48 ./KSDK/platform/hal/uart/fsl_uart_hal.o
 .text.UART_HAL_SetIntMode
                0x0000000000000000      0x12c ./KSDK/platform/hal/uart/fsl_uart_hal.o
 .text.UART_HAL_GetIntMode
                0x0000000000000000       0xbc ./KSDK/platform/hal/uart/fsl_uart_hal.o
 .text.UART_HAL_ConfigureDma
                0x0000000000000000       0xbc ./KSDK/platform/hal/uart/fsl_uart_hal.o
 .text.UART_HAL_IsTxdmaEnabled
                0x0000000000000000       0x60 ./KSDK/platform/hal/uart/fsl_uart_hal.o
 .text.UART_HAL_IsRxdmaEnabled
                0x0000000000000000       0x48 ./KSDK/platform/hal/uart/fsl_uart_hal.o
 .text.UART_HAL_GetStatusFlag
                0x0000000000000000       0xc0 ./KSDK/platform/hal/uart/fsl_uart_hal.o
 .text.UART_HAL_ClearStatusFlag
                0x0000000000000000      0x17c ./KSDK/platform/hal/uart/fsl_uart_hal.o
 .text.UART_HAL_ClearAllNonAutoclearStatusFlags
                0x0000000000000000       0x60 ./KSDK/platform/hal/uart/fsl_uart_hal.o
 .text.UART_HAL_PutReceiverInStandbyMode
                0x0000000000000000       0x54 ./KSDK/platform/hal/uart/fsl_uart_hal.o
 .text.UART_HAL_ConfigIdleLineDetect
                0x0000000000000000       0x3c ./KSDK/platform/hal/uart/fsl_uart_hal.o
 .text.UART_HAL_SetMatchAddress
                0x0000000000000000       0x48 ./KSDK/platform/hal/uart/fsl_uart_hal.o
 .text.UART_HAL_SetInfraredOperation
                0x0000000000000000       0x4c ./KSDK/platform/hal/uart/fsl_uart_hal.o
 .rodata.__func__.14881
                0x0000000000000000       0x1c ./KSDK/platform/hal/uart/fsl_uart_hal.o
 .text          0x0000000000000000        0x0 ./KSDK/platform/hal/sim/MK64F12/fsl_sim_hal_K64F12.o
 .data          0x0000000000000000        0x0 ./KSDK/platform/hal/sim/MK64F12/fsl_sim_hal_K64F12.o
 .bss           0x0000000000000000        0x0 ./KSDK/platform/hal/sim/MK64F12/fsl_sim_hal_K64F12.o
 .text.SIM_HAL_EnableDmaClock
                0x0000000000000000       0x28 ./KSDK/platform/hal/sim/MK64F12/fsl_sim_hal_K64F12.o
 .text.SIM_HAL_DisableDmaClock
                0x0000000000000000       0x28 ./KSDK/platform/hal/sim/MK64F12/fsl_sim_hal_K64F12.o
 .text.SIM_HAL_GetDmaGateCmd
                0x0000000000000000       0x30 ./KSDK/platform/hal/sim/MK64F12/fsl_sim_hal_K64F12.o
 .text.SIM_HAL_EnableDmamuxClock
                0x0000000000000000       0x28 ./KSDK/platform/hal/sim/MK64F12/fsl_sim_hal_K64F12.o
 .text.SIM_HAL_DisableDmamuxClock
                0x0000000000000000       0x28 ./KSDK/platform/hal/sim/MK64F12/fsl_sim_hal_K64F12.o
 .text.SIM_HAL_GetDmamuxGateCmd
                0x0000000000000000       0x30 ./KSDK/platform/hal/sim/MK64F12/fsl_sim_hal_K64F12.o
 .text.SIM_HAL_DisablePortClock
                0x0000000000000000       0x8c ./KSDK/platform/hal/sim/MK64F12/fsl_sim_hal_K64F12.o
 .text.SIM_HAL_GetPortGateCmd
                0x0000000000000000       0xc0 ./KSDK/platform/hal/sim/MK64F12/fsl_sim_hal_K64F12.o
 .text.SIM_HAL_EnableMpuClock
                0x0000000000000000       0x28 ./KSDK/platform/hal/sim/MK64F12/fsl_sim_hal_K64F12.o
 .text.SIM_HAL_DisableMpuClock
                0x0000000000000000       0x28 ./KSDK/platform/hal/sim/MK64F12/fsl_sim_hal_K64F12.o
 .text.SIM_HAL_GetMpuGateCmd
                0x0000000000000000       0x30 ./KSDK/platform/hal/sim/MK64F12/fsl_sim_hal_K64F12.o
 .text.SIM_HAL_EnableEwmClock
                0x0000000000000000       0x28 ./KSDK/platform/hal/sim/MK64F12/fsl_sim_hal_K64F12.o
 .text.SIM_HAL_DisableEwmClock
                0x0000000000000000       0x28 ./KSDK/platform/hal/sim/MK64F12/fsl_sim_hal_K64F12.o
 .text.SIM_HAL_GetEwmGateCmd
                0x0000000000000000       0x30 ./KSDK/platform/hal/sim/MK64F12/fsl_sim_hal_K64F12.o
 .text.SIM_HAL_EnableFlexbusClock
                0x0000000000000000       0x24 ./KSDK/platform/hal/sim/MK64F12/fsl_sim_hal_K64F12.o
 .text.SIM_HAL_DisableFlexbusClock
                0x0000000000000000       0x24 ./KSDK/platform/hal/sim/MK64F12/fsl_sim_hal_K64F12.o
 .text.SIM_HAL_GetFlexbusGateCmd
                0x0000000000000000       0x30 ./KSDK/platform/hal/sim/MK64F12/fsl_sim_hal_K64F12.o
 .text.SIM_HAL_EnableFtfClock
                0x0000000000000000       0x24 ./KSDK/platform/hal/sim/MK64F12/fsl_sim_hal_K64F12.o
 .text.SIM_HAL_DisableFtfClock
                0x0000000000000000       0x24 ./KSDK/platform/hal/sim/MK64F12/fsl_sim_hal_K64F12.o
 .text.SIM_HAL_GetFtfGateCmd
                0x0000000000000000       0x30 ./KSDK/platform/hal/sim/MK64F12/fsl_sim_hal_K64F12.o
 .text.SIM_HAL_EnableCrcClock
                0x0000000000000000       0x28 ./KSDK/platform/hal/sim/MK64F12/fsl_sim_hal_K64F12.o
 .text.SIM_HAL_DisableCrcClock
                0x0000000000000000       0x28 ./KSDK/platform/hal/sim/MK64F12/fsl_sim_hal_K64F12.o
 .text.SIM_HAL_GetCrcGateCmd
                0x0000000000000000       0x30 ./KSDK/platform/hal/sim/MK64F12/fsl_sim_hal_K64F12.o
 .text.SIM_HAL_EnableRngaClock
                0x0000000000000000       0x28 ./KSDK/platform/hal/sim/MK64F12/fsl_sim_hal_K64F12.o
 .text.SIM_HAL_DisableRngaClock
                0x0000000000000000       0x28 ./KSDK/platform/hal/sim/MK64F12/fsl_sim_hal_K64F12.o
 .text.SIM_HAL_GetRngaGateCmd
                0x0000000000000000       0x30 ./KSDK/platform/hal/sim/MK64F12/fsl_sim_hal_K64F12.o
 .text.SIM_HAL_EnableAdcClock
                0x0000000000000000       0x48 ./KSDK/platform/hal/sim/MK64F12/fsl_sim_hal_K64F12.o
 .text.SIM_HAL_DisableAdcClock
                0x0000000000000000       0x48 ./KSDK/platform/hal/sim/MK64F12/fsl_sim_hal_K64F12.o
 .text.SIM_HAL_GetAdcGateCmd
                0x0000000000000000       0x68 ./KSDK/platform/hal/sim/MK64F12/fsl_sim_hal_K64F12.o
 .text.SIM_HAL_EnableCmpClock
                0x0000000000000000       0x28 ./KSDK/platform/hal/sim/MK64F12/fsl_sim_hal_K64F12.o
 .text.SIM_HAL_DisableCmpClock
                0x0000000000000000       0x28 ./KSDK/platform/hal/sim/MK64F12/fsl_sim_hal_K64F12.o
 .text.SIM_HAL_GetCmpGateCmd
                0x0000000000000000       0x30 ./KSDK/platform/hal/sim/MK64F12/fsl_sim_hal_K64F12.o
 .text.SIM_HAL_EnableDacClock
                0x0000000000000000       0x44 ./KSDK/platform/hal/sim/MK64F12/fsl_sim_hal_K64F12.o
 .text.SIM_HAL_DisableDacClock
                0x0000000000000000       0x44 ./KSDK/platform/hal/sim/MK64F12/fsl_sim_hal_K64F12.o
 .text.SIM_HAL_GetDacGateCmd
                0x0000000000000000       0x64 ./KSDK/platform/hal/sim/MK64F12/fsl_sim_hal_K64F12.o
 .text.SIM_HAL_EnableVrefClock
                0x0000000000000000       0x28 ./KSDK/platform/hal/sim/MK64F12/fsl_sim_hal_K64F12.o
 .text.SIM_HAL_DisableVrefClock
                0x0000000000000000       0x28 ./KSDK/platform/hal/sim/MK64F12/fsl_sim_hal_K64F12.o
 .text.SIM_HAL_GetVrefGateCmd
                0x0000000000000000       0x30 ./KSDK/platform/hal/sim/MK64F12/fsl_sim_hal_K64F12.o
 .text.SIM_HAL_EnableSaiClock
                0x0000000000000000       0x28 ./KSDK/platform/hal/sim/MK64F12/fsl_sim_hal_K64F12.o
 .text.SIM_HAL_DisableSaiClock
                0x0000000000000000       0x28 ./KSDK/platform/hal/sim/MK64F12/fsl_sim_hal_K64F12.o
 .text.SIM_HAL_GetSaiGateCmd
                0x0000000000000000       0x30 ./KSDK/platform/hal/sim/MK64F12/fsl_sim_hal_K64F12.o
 .text.SIM_HAL_EnablePdbClock
                0x0000000000000000       0x28 ./KSDK/platform/hal/sim/MK64F12/fsl_sim_hal_K64F12.o
 .text.SIM_HAL_DisablePdbClock
                0x0000000000000000       0x28 ./KSDK/platform/hal/sim/MK64F12/fsl_sim_hal_K64F12.o
 .text.SIM_HAL_GetPdbGateCmd
                0x0000000000000000       0x30 ./KSDK/platform/hal/sim/MK64F12/fsl_sim_hal_K64F12.o
 .text.SIM_HAL_EnableFtmClock
                0x0000000000000000       0x80 ./KSDK/platform/hal/sim/MK64F12/fsl_sim_hal_K64F12.o
 .text.SIM_HAL_DisableFtmClock
                0x0000000000000000       0x80 ./KSDK/platform/hal/sim/MK64F12/fsl_sim_hal_K64F12.o
 .text.SIM_HAL_GetFtmGateCmd
                0x0000000000000000       0xac ./KSDK/platform/hal/sim/MK64F12/fsl_sim_hal_K64F12.o
 .text.SIM_HAL_EnablePitClock
                0x0000000000000000       0x28 ./KSDK/platform/hal/sim/MK64F12/fsl_sim_hal_K64F12.o
 .text.SIM_HAL_DisablePitClock
                0x0000000000000000       0x28 ./KSDK/platform/hal/sim/MK64F12/fsl_sim_hal_K64F12.o
 .text.SIM_HAL_GetPitGateCmd
                0x0000000000000000       0x30 ./KSDK/platform/hal/sim/MK64F12/fsl_sim_hal_K64F12.o
 .text.SIM_HAL_EnableLptimerClock
                0x0000000000000000       0x24 ./KSDK/platform/hal/sim/MK64F12/fsl_sim_hal_K64F12.o
 .text.SIM_HAL_DisableLptimerClock
                0x0000000000000000       0x24 ./KSDK/platform/hal/sim/MK64F12/fsl_sim_hal_K64F12.o
 .text.SIM_HAL_GetLptimerGateCmd
                0x0000000000000000       0x30 ./KSDK/platform/hal/sim/MK64F12/fsl_sim_hal_K64F12.o
 .text.SIM_HAL_EnableCmtClock
                0x0000000000000000       0x28 ./KSDK/platform/hal/sim/MK64F12/fsl_sim_hal_K64F12.o
 .text.SIM_HAL_DisableCmtClock
                0x0000000000000000       0x28 ./KSDK/platform/hal/sim/MK64F12/fsl_sim_hal_K64F12.o
 .text.SIM_HAL_GetCmtGateCmd
                0x0000000000000000       0x30 ./KSDK/platform/hal/sim/MK64F12/fsl_sim_hal_K64F12.o
 .text.SIM_HAL_EnableRtcClock
                0x0000000000000000       0x28 ./KSDK/platform/hal/sim/MK64F12/fsl_sim_hal_K64F12.o
 .text.SIM_HAL_DisableRtcClock
                0x0000000000000000       0x28 ./KSDK/platform/hal/sim/MK64F12/fsl_sim_hal_K64F12.o
 .text.SIM_HAL_GetRtcGateCmd
                0x0000000000000000       0x30 ./KSDK/platform/hal/sim/MK64F12/fsl_sim_hal_K64F12.o
 .text.SIM_HAL_EnableEnetClock
                0x0000000000000000       0x24 ./KSDK/platform/hal/sim/MK64F12/fsl_sim_hal_K64F12.o
 .text.SIM_HAL_DisableEnetClock
                0x0000000000000000       0x24 ./KSDK/platform/hal/sim/MK64F12/fsl_sim_hal_K64F12.o
 .text.SIM_HAL_GetEnetGateCmd
                0x0000000000000000       0x30 ./KSDK/platform/hal/sim/MK64F12/fsl_sim_hal_K64F12.o
 .text.SIM_HAL_EnableUsbClock
                0x0000000000000000       0x28 ./KSDK/platform/hal/sim/MK64F12/fsl_sim_hal_K64F12.o
 .text.SIM_HAL_DisableUsbClock
                0x0000000000000000       0x28 ./KSDK/platform/hal/sim/MK64F12/fsl_sim_hal_K64F12.o
 .text.SIM_HAL_GetUsbGateCmd
                0x0000000000000000       0x30 ./KSDK/platform/hal/sim/MK64F12/fsl_sim_hal_K64F12.o
 .text.SIM_HAL_EnableUsbdcdClock
                0x0000000000000000       0x28 ./KSDK/platform/hal/sim/MK64F12/fsl_sim_hal_K64F12.o
 .text.SIM_HAL_DisableUsbdcdClock
                0x0000000000000000       0x28 ./KSDK/platform/hal/sim/MK64F12/fsl_sim_hal_K64F12.o
 .text.SIM_HAL_GetUsbdcdGateCmd
                0x0000000000000000       0x30 ./KSDK/platform/hal/sim/MK64F12/fsl_sim_hal_K64F12.o
 .text.SIM_HAL_EnableFlexcanClock
                0x0000000000000000       0x28 ./KSDK/platform/hal/sim/MK64F12/fsl_sim_hal_K64F12.o
 .text.SIM_HAL_DisableFlexcanClock
                0x0000000000000000       0x28 ./KSDK/platform/hal/sim/MK64F12/fsl_sim_hal_K64F12.o
 .text.SIM_HAL_GetFlexcanGateCmd
                0x0000000000000000       0x30 ./KSDK/platform/hal/sim/MK64F12/fsl_sim_hal_K64F12.o
 .text.SIM_HAL_EnableSpiClock
                0x0000000000000000       0x5c ./KSDK/platform/hal/sim/MK64F12/fsl_sim_hal_K64F12.o
 .text.SIM_HAL_DisableSpiClock
                0x0000000000000000       0x5c ./KSDK/platform/hal/sim/MK64F12/fsl_sim_hal_K64F12.o
 .text.SIM_HAL_GetSpiGateCmd
                0x0000000000000000       0x84 ./KSDK/platform/hal/sim/MK64F12/fsl_sim_hal_K64F12.o
 .text.SIM_HAL_EnableI2cClock
                0x0000000000000000       0x5c ./KSDK/platform/hal/sim/MK64F12/fsl_sim_hal_K64F12.o
 .text.SIM_HAL_DisableI2cClock
                0x0000000000000000       0x5c ./KSDK/platform/hal/sim/MK64F12/fsl_sim_hal_K64F12.o
 .text.SIM_HAL_GetI2cGateCmd
                0x0000000000000000       0x84 ./KSDK/platform/hal/sim/MK64F12/fsl_sim_hal_K64F12.o
 .text.SIM_HAL_DisableUartClock
                0x0000000000000000       0xa4 ./KSDK/platform/hal/sim/MK64F12/fsl_sim_hal_K64F12.o
 .text.SIM_HAL_GetUartGateCmd
                0x0000000000000000       0xe0 ./KSDK/platform/hal/sim/MK64F12/fsl_sim_hal_K64F12.o
 .text.SIM_HAL_EnableSdhcClock
                0x0000000000000000       0x28 ./KSDK/platform/hal/sim/MK64F12/fsl_sim_hal_K64F12.o
 .text.SIM_HAL_DisableSdhcClock
                0x0000000000000000       0x28 ./KSDK/platform/hal/sim/MK64F12/fsl_sim_hal_K64F12.o
 .text.SIM_HAL_GetSdhcGateCmd
                0x0000000000000000       0x30 ./KSDK/platform/hal/sim/MK64F12/fsl_sim_hal_K64F12.o
 .text          0x0000000000000000        0x0 ./KSDK/platform/hal/sim/fsl_sim_hal.o
 .data          0x0000000000000000        0x0 ./KSDK/platform/hal/sim/fsl_sim_hal.o
 .bss           0x0000000000000000        0x0 ./KSDK/platform/hal/sim/fsl_sim_hal.o
 .text.CLOCK_HAL_SetSource
                0x0000000000000000      0x190 ./KSDK/platform/hal/sim/fsl_sim_hal.o
 .text.CLOCK_HAL_GetSource
                0x0000000000000000      0x168 ./KSDK/platform/hal/sim/fsl_sim_hal.o
 .text.CLOCK_HAL_SetDivider
                0x0000000000000000      0x15c ./KSDK/platform/hal/sim/fsl_sim_hal.o
 .text.CLOCK_HAL_SetOutDividers
                0x0000000000000000       0x5c ./KSDK/platform/hal/sim/fsl_sim_hal.o
 .text.SIM_HAL_SetAdcAlternativeTriggerCmd
                0x0000000000000000       0x68 ./KSDK/platform/hal/sim/fsl_sim_hal.o
 .text.SIM_HAL_GetAdcAlternativeTriggerCmd
                0x0000000000000000       0x80 ./KSDK/platform/hal/sim/fsl_sim_hal.o
 .text.SIM_HAL_SetAdcPreTriggerMode
                0x0000000000000000       0x68 ./KSDK/platform/hal/sim/fsl_sim_hal.o
 .text.SIM_HAL_GetAdcPreTriggerMode
                0x0000000000000000       0x6c ./KSDK/platform/hal/sim/fsl_sim_hal.o
 .text.SIM_HAL_SetAdcTriggerMode
                0x0000000000000000       0x8c ./KSDK/platform/hal/sim/fsl_sim_hal.o
 .text.SIM_HAL_GetAdcTriggerMode
                0x0000000000000000       0x70 ./KSDK/platform/hal/sim/fsl_sim_hal.o
 .text.SIM_HAL_SetUartRxSrcMode
                0x0000000000000000       0x8c ./KSDK/platform/hal/sim/fsl_sim_hal.o
 .text.SIM_HAL_GetUartRxSrcMode
                0x0000000000000000       0x74 ./KSDK/platform/hal/sim/fsl_sim_hal.o
 .text.SIM_HAL_SetUartTxSrcMode
                0x0000000000000000       0x8c ./KSDK/platform/hal/sim/fsl_sim_hal.o
 .text.SIM_HAL_GetUartTxSrcMode
                0x0000000000000000       0x70 ./KSDK/platform/hal/sim/fsl_sim_hal.o
 .text.SIM_HAL_SetFtmTriggerSrcMode
                0x0000000000000000       0xb8 ./KSDK/platform/hal/sim/fsl_sim_hal.o
 .text.SIM_HAL_GetFtmTriggerSrcMode
                0x0000000000000000       0xc4 ./KSDK/platform/hal/sim/fsl_sim_hal.o
 .text.SIM_HAL_SetFtmExternalClkPinMode
                0x0000000000000000       0x9c ./KSDK/platform/hal/sim/fsl_sim_hal.o
 .text.SIM_HAL_GetFtmExternalClkPinMode
                0x0000000000000000       0xa0 ./KSDK/platform/hal/sim/fsl_sim_hal.o
 .text.SIM_HAL_SetFtmChSrcMode
                0x0000000000000000       0xa0 ./KSDK/platform/hal/sim/fsl_sim_hal.o
 .text.SIM_HAL_GetFtmChSrcMode
                0x0000000000000000       0x8c ./KSDK/platform/hal/sim/fsl_sim_hal.o
 .text.SIM_HAL_SetFtmFaultSelMode
                0x0000000000000000       0xcc ./KSDK/platform/hal/sim/fsl_sim_hal.o
 .text.SIM_HAL_GetFtmFaultSelMode
                0x0000000000000000       0xd4 ./KSDK/platform/hal/sim/fsl_sim_hal.o
 .rodata.__func__.15208
                0x0000000000000000       0x14 ./KSDK/platform/hal/sim/fsl_sim_hal.o
 .rodata.__func__.15226
                0x0000000000000000       0x14 ./KSDK/platform/hal/sim/fsl_sim_hal.o
 .rodata.__func__.15244
                0x0000000000000000       0x18 ./KSDK/platform/hal/sim/fsl_sim_hal.o
 .rodata.__func__.15283
                0x0000000000000000       0x24 ./KSDK/platform/hal/sim/fsl_sim_hal.o
 .rodata.__func__.15293
                0x0000000000000000       0x24 ./KSDK/platform/hal/sim/fsl_sim_hal.o
 .rodata.__func__.15303
                0x0000000000000000       0x20 ./KSDK/platform/hal/sim/fsl_sim_hal.o
 .rodata.__func__.15313
                0x0000000000000000       0x20 ./KSDK/platform/hal/sim/fsl_sim_hal.o
 .rodata.__func__.15323
                0x0000000000000000       0x1c ./KSDK/platform/hal/sim/fsl_sim_hal.o
 .rodata.__func__.15333
                0x0000000000000000       0x1c ./KSDK/platform/hal/sim/fsl_sim_hal.o
 .rodata.__func__.15343
                0x0000000000000000       0x1c ./KSDK/platform/hal/sim/fsl_sim_hal.o
 .rodata.__func__.15353
                0x0000000000000000       0x1c ./KSDK/platform/hal/sim/fsl_sim_hal.o
 .rodata.__func__.15363
                0x0000000000000000       0x1c ./KSDK/platform/hal/sim/fsl_sim_hal.o
 .rodata.__func__.15373
                0x0000000000000000       0x1c ./KSDK/platform/hal/sim/fsl_sim_hal.o
 .rodata.__func__.15384
                0x0000000000000000       0x20 ./KSDK/platform/hal/sim/fsl_sim_hal.o
 .rodata.__func__.15403
                0x0000000000000000       0x20 ./KSDK/platform/hal/sim/fsl_sim_hal.o
 .rodata.__func__.15421
                0x0000000000000000       0x24 ./KSDK/platform/hal/sim/fsl_sim_hal.o
 .rodata.__func__.15433
                0x0000000000000000       0x24 ./KSDK/platform/hal/sim/fsl_sim_hal.o
 .rodata.__func__.15446
                0x0000000000000000       0x18 ./KSDK/platform/hal/sim/fsl_sim_hal.o
 .rodata.__func__.15463
                0x0000000000000000       0x18 ./KSDK/platform/hal/sim/fsl_sim_hal.o
 .rodata.__func__.15480
                0x0000000000000000       0x1c ./KSDK/platform/hal/sim/fsl_sim_hal.o
 .rodata.__func__.15498
                0x0000000000000000       0x1c ./KSDK/platform/hal/sim/fsl_sim_hal.o
 .text          0x0000000000000000        0x0 ./KSDK/platform/hal/port/fsl_port_hal.o
 .data          0x0000000000000000        0x0 ./KSDK/platform/hal/port/fsl_port_hal.o
 .bss           0x0000000000000000        0x0 ./KSDK/platform/hal/port/fsl_port_hal.o
 .text.PORT_HAL_SetLowGlobalPinCtrl
                0x0000000000000000       0x30 ./KSDK/platform/hal/port/fsl_port_hal.o
 .text.PORT_HAL_SetHighGlobalPinCtrl
                0x0000000000000000       0x30 ./KSDK/platform/hal/port/fsl_port_hal.o
 .debug_info    0x0000000000000000      0x21d ./KSDK/platform/hal/port/fsl_port_hal.o
 .debug_abbrev  0x0000000000000000       0xd2 ./KSDK/platform/hal/port/fsl_port_hal.o
 .debug_aranges
                0x0000000000000000       0x28 ./KSDK/platform/hal/port/fsl_port_hal.o
 .debug_ranges  0x0000000000000000       0x18 ./KSDK/platform/hal/port/fsl_port_hal.o
 .debug_line    0x0000000000000000      0x2fd ./KSDK/platform/hal/port/fsl_port_hal.o
 .debug_str     0x0000000000000000      0x332 ./KSDK/platform/hal/port/fsl_port_hal.o
 .comment       0x0000000000000000       0x71 ./KSDK/platform/hal/port/fsl_port_hal.o
 .ARM.attributes
                0x0000000000000000       0x39 ./KSDK/platform/hal/port/fsl_port_hal.o
 .debug_frame   0x0000000000000000       0x48 ./KSDK/platform/hal/port/fsl_port_hal.o
 .text          0x0000000000000000        0x0 ./KSDK/platform/hal/mcg/fsl_mcg_hal.o
 .data          0x0000000000000000        0x0 ./KSDK/platform/hal/mcg/fsl_mcg_hal.o
 .bss           0x0000000000000000        0x0 ./KSDK/platform/hal/mcg/fsl_mcg_hal.o
 .text          0x0000000000000000        0x0 ./KSDK/platform/hal/gpio/fsl_gpio_hal.o
 .data          0x0000000000000000        0x0 ./KSDK/platform/hal/gpio/fsl_gpio_hal.o
 .bss           0x0000000000000000        0x0 ./KSDK/platform/hal/gpio/fsl_gpio_hal.o
 .text          0x0000000000000000        0x0 ./KSDK/platform/drivers/uart/src/fsl_uart_driver.o
 .data          0x0000000000000000        0x0 ./KSDK/platform/drivers/uart/src/fsl_uart_driver.o
 .bss           0x0000000000000000        0x0 ./KSDK/platform/drivers/uart/src/fsl_uart_driver.o
 .text.NVIC_DisableIRQ
                0x0000000000000000       0x34 ./KSDK/platform/drivers/uart/src/fsl_uart_driver.o
 .text.UART_HAL_DisableTransmitter
                0x0000000000000000       0x24 ./KSDK/platform/drivers/uart/src/fsl_uart_driver.o
 .text.UART_HAL_DisableReceiver
                0x0000000000000000       0x24 ./KSDK/platform/drivers/uart/src/fsl_uart_driver.o
 .text.UART_HAL_IsTxComplete
                0x0000000000000000       0x30 ./KSDK/platform/drivers/uart/src/fsl_uart_driver.o
 .text.CLOCK_SYS_DisableUartClock
                0x0000000000000000       0x20 ./KSDK/platform/drivers/uart/src/fsl_uart_driver.o
 .text.INT_SYS_DisableIRQ
                0x0000000000000000       0x54 ./KSDK/platform/drivers/uart/src/fsl_uart_driver.o
 .text.UART_DRV_Deinit
                0x0000000000000000       0xac ./KSDK/platform/drivers/uart/src/fsl_uart_driver.o
 .text.UART_DRV_StartReceiveData
                0x0000000000000000       0x7c ./KSDK/platform/drivers/uart/src/fsl_uart_driver.o
 .text.UART_DRV_SendData
                0x0000000000000000       0x78 ./KSDK/platform/drivers/uart/src/fsl_uart_driver.o
 .text.UART_DRV_GetTransmitStatus
                0x0000000000000000       0x80 ./KSDK/platform/drivers/uart/src/fsl_uart_driver.o
 .text.UART_DRV_ReceiveDataBlocking
                0x0000000000000000       0xa4 ./KSDK/platform/drivers/uart/src/fsl_uart_driver.o
 .text.UART_DRV_ReceiveData
                0x0000000000000000       0x78 ./KSDK/platform/drivers/uart/src/fsl_uart_driver.o
 .text.UART_DRV_GetReceiveStatus
                0x0000000000000000       0x60 ./KSDK/platform/drivers/uart/src/fsl_uart_driver.o
 .text.UART_DRV_AbortReceivingData
                0x0000000000000000       0x5c ./KSDK/platform/drivers/uart/src/fsl_uart_driver.o
 .rodata.__func__.18112
                0x0000000000000000       0x10 ./KSDK/platform/drivers/uart/src/fsl_uart_driver.o
 .rodata.__func__.18095
                0x0000000000000000       0x14 ./KSDK/platform/drivers/uart/src/fsl_uart_driver.o
 .rodata.__func__.18157
                0x0000000000000000       0x1c ./KSDK/platform/drivers/uart/src/fsl_uart_driver.o
 .rodata.__func__.18181
                0x0000000000000000       0x14 ./KSDK/platform/drivers/uart/src/fsl_uart_driver.o
 .rodata.__func__.18187
                0x0000000000000000       0x1c ./KSDK/platform/drivers/uart/src/fsl_uart_driver.o
 .rodata.__func__.18201
                0x0000000000000000       0x20 ./KSDK/platform/drivers/uart/src/fsl_uart_driver.o
 .rodata.__func__.18212
                0x0000000000000000       0x18 ./KSDK/platform/drivers/uart/src/fsl_uart_driver.o
 .rodata.__func__.18218
                0x0000000000000000       0x1c ./KSDK/platform/drivers/uart/src/fsl_uart_driver.o
 .rodata.__func__.18223
                0x0000000000000000       0x1c ./KSDK/platform/drivers/uart/src/fsl_uart_driver.o
 .text          0x0000000000000000        0x0 ./KSDK/platform/drivers/uart/common/fsl_uart_common.o
 .data          0x0000000000000000        0x0 ./KSDK/platform/drivers/uart/common/fsl_uart_common.o
 .bss           0x0000000000000000        0x0 ./KSDK/platform/drivers/uart/common/fsl_uart_common.o
 .text          0x0000000000000000        0x0 ./KSDK/platform/drivers/gpio/src/fsl_gpio_driver.o
 .data          0x0000000000000000        0x0 ./KSDK/platform/drivers/gpio/src/fsl_gpio_driver.o
 .bss           0x0000000000000000        0x0 ./KSDK/platform/drivers/gpio/src/fsl_gpio_driver.o
 .text.PORT_HAL_ClearPinIntFlag
                0x0000000000000000       0x44 ./KSDK/platform/drivers/gpio/src/fsl_gpio_driver.o
 .text.GPIO_HAL_GetPinDir
                0x0000000000000000       0x44 ./KSDK/platform/drivers/gpio/src/fsl_gpio_driver.o
 .text.GPIO_HAL_SetPinOutput
                0x0000000000000000       0x3c ./KSDK/platform/drivers/gpio/src/fsl_gpio_driver.o
 .text.GPIO_HAL_ClearPinOutput
                0x0000000000000000       0x3c ./KSDK/platform/drivers/gpio/src/fsl_gpio_driver.o
 .text.GPIO_HAL_ReadPinInput
                0x0000000000000000       0x44 ./KSDK/platform/drivers/gpio/src/fsl_gpio_driver.o
 .text.GPIO_DRV_GetPinDir
                0x0000000000000000       0x34 ./KSDK/platform/drivers/gpio/src/fsl_gpio_driver.o
 .text.GPIO_DRV_SetPinDir
                0x0000000000000000       0x38 ./KSDK/platform/drivers/gpio/src/fsl_gpio_driver.o
 .text.GPIO_DRV_WritePinOutput
                0x0000000000000000       0x34 ./KSDK/platform/drivers/gpio/src/fsl_gpio_driver.o
 .text.GPIO_DRV_SetPinOutput
                0x0000000000000000       0x30 ./KSDK/platform/drivers/gpio/src/fsl_gpio_driver.o
 .text.GPIO_DRV_ClearPinOutput
                0x0000000000000000       0x30 ./KSDK/platform/drivers/gpio/src/fsl_gpio_driver.o
 .text.GPIO_DRV_ReadPinInput
                0x0000000000000000       0x34 ./KSDK/platform/drivers/gpio/src/fsl_gpio_driver.o
 .text.GPIO_DRV_SetDigitalFilterCmd
                0x0000000000000000       0x38 ./KSDK/platform/drivers/gpio/src/fsl_gpio_driver.o
 .text.GPIO_DRV_ClearPinIntFlag
                0x0000000000000000       0x30 ./KSDK/platform/drivers/gpio/src/fsl_gpio_driver.o
 .rodata.__func__.14692
                0x0000000000000000       0x14 ./KSDK/platform/drivers/gpio/src/fsl_gpio_driver.o
 .rodata.__func__.14709
                0x0000000000000000       0x18 ./KSDK/platform/drivers/gpio/src/fsl_gpio_driver.o
 .rodata.__func__.14714
                0x0000000000000000       0x18 ./KSDK/platform/drivers/gpio/src/fsl_gpio_driver.o
 .rodata.__func__.14731
                0x0000000000000000       0x18 ./KSDK/platform/drivers/gpio/src/fsl_gpio_driver.o
 .rodata.__func__.14660
                0x0000000000000000       0x1c ./KSDK/platform/drivers/gpio/src/fsl_gpio_driver.o
 .text          0x0000000000000000        0x0 ./KSDK/platform/drivers/gpio/common/fsl_gpio_common.o
 .data          0x0000000000000000        0x0 ./KSDK/platform/drivers/gpio/common/fsl_gpio_common.o
 .bss           0x0000000000000000        0x0 ./KSDK/platform/drivers/gpio/common/fsl_gpio_common.o
 .text          0x0000000000000000        0x0 ./KSDK/boards/frdmk64f120m/gpio_pins.o
 .data          0x0000000000000000        0x0 ./KSDK/boards/frdmk64f120m/gpio_pins.o
 .bss           0x0000000000000000        0x0 ./KSDK/boards/frdmk64f120m/gpio_pins.o
 .data.switchPins
                0x0000000000000000       0x24 ./KSDK/boards/frdmk64f120m/gpio_pins.o
 .rodata.accelIntPins
                0x0000000000000000       0x24 ./KSDK/boards/frdmk64f120m/gpio_pins.o
 .rodata.gpioUartDemoRxPin
                0x0000000000000000       0x18 ./KSDK/boards/frdmk64f120m/gpio_pins.o
 .rodata.sdhcCdPin
                0x0000000000000000       0x18 ./KSDK/boards/frdmk64f120m/gpio_pins.o
 .rodata.spiCsPin
                0x0000000000000000       0x24 ./KSDK/boards/frdmk64f120m/gpio_pins.o
 .text          0x0000000000000000        0x0 ./KSDK/boards/frdmk64f120m/hardware_init.o
 .data          0x0000000000000000        0x0 ./KSDK/boards/frdmk64f120m/hardware_init.o
 .bss           0x0000000000000000        0x0 ./KSDK/boards/frdmk64f120m/hardware_init.o
 .text.dbg_uart_init
                0x0000000000000000       0x38 ./KSDK/boards/frdmk64f120m/hardware_init.o
 .text          0x0000000000000000        0x0 ./KSDK/boards/frdmk64f120m/pin_mux.o
 .data          0x0000000000000000        0x0 ./KSDK/boards/frdmk64f120m/pin_mux.o
 .bss           0x0000000000000000        0x0 ./KSDK/boards/frdmk64f120m/pin_mux.o
 .text.configure_can_pins
                0x0000000000000000       0x28 ./KSDK/boards/frdmk64f120m/pin_mux.o
 .text.configure_cmp_pins
                0x0000000000000000       0x28 ./KSDK/boards/frdmk64f120m/pin_mux.o
 .text.configure_i2s_pins
                0x0000000000000000       0x5c ./KSDK/boards/frdmk64f120m/pin_mux.o
 .text.configure_rtc_pins
                0x0000000000000000       0x1c ./KSDK/boards/frdmk64f120m/pin_mux.o
 .text.configure_spi_cs0_pins
                0x0000000000000000       0x1c ./KSDK/boards/frdmk64f120m/pin_mux.o
 .text.configure_spi_cs1_pins
                0x0000000000000000       0x1c ./KSDK/boards/frdmk64f120m/pin_mux.o
 .text.configure_gpio_i2c_pins
                0x0000000000000000       0x28 ./KSDK/boards/frdmk64f120m/pin_mux.o
 .text.configure_ftm_pins
                0x0000000000000000       0x28 ./KSDK/boards/frdmk64f120m/pin_mux.o
 .data          0x0000000000000000        0x0 ./BSP/KSDK/KDS/startup_MK64F12.o
 .bss           0x0000000000000000        0x0 ./BSP/KSDK/KDS/startup_MK64F12.o
 .text          0x0000000000000000        0x0 ./BSP/KSDK/startup.o
 .data          0x0000000000000000        0x0 ./BSP/KSDK/startup.o
 .bss           0x0000000000000000        0x0 ./BSP/KSDK/startup.o
 .text          0x0000000000000000        0x0 ./BSP/bsp_ser.o
 .data          0x0000000000000000        0x0 ./BSP/bsp_ser.o
 .bss           0x0000000000000000        0x0 ./BSP/bsp_ser.o
 .text.BSP_Ser_RdByte
                0x0000000000000000       0x44 ./BSP/bsp_ser.o
 .text.BSP_Ser_RdStr
                0x0000000000000000       0xe0 ./BSP/bsp_ser.o
 .text.BSP_Ser_WrByte
                0x0000000000000000       0x38 ./BSP/bsp_ser.o
 .text.BSP_Ser_WrByteUnlocked
                0x0000000000000000       0x20 ./BSP/bsp_ser.o
 .text.BSP_Ser_RdByteUnlocked
                0x0000000000000000       0x20 ./BSP/bsp_ser.o
 .text          0x0000000000000000        0x0 ./BSP/cpu_bsp.o
 .data          0x0000000000000000        0x0 ./BSP/cpu_bsp.o
 .bss           0x0000000000000000        0x0 ./BSP/cpu_bsp.o
 .text.CPU_TS_TmrRd
                0x0000000000000000       0x20 ./BSP/cpu_bsp.o
 .text.CPU_TS32_to_uSec
                0x0000000000000000       0x5c ./BSP/cpu_bsp.o
 .text          0x0000000000000000        0x0 ./APP/app.o
 .data          0x0000000000000000        0x0 ./APP/app.o
 .bss           0x0000000000000000        0x0 ./APP/app.o
 .text          0x0000000000000000        0x0 ./APP/os_app_hooks.o
 .data          0x0000000000000000        0x0 ./APP/os_app_hooks.o
 .bss           0x0000000000000000        0x0 ./APP/os_app_hooks.o
 .text.App_OS_SetAllHooks
                0x0000000000000000       0x70 ./APP/os_app_hooks.o
 .text.App_OS_ClrAllHooks
                0x0000000000000000       0x54 ./APP/os_app_hooks.o
 .text.App_OS_TaskCreateHook
                0x0000000000000000       0x14 ./APP/os_app_hooks.o
 .text.App_OS_TaskDelHook
                0x0000000000000000       0x14 ./APP/os_app_hooks.o
 .text.App_OS_TaskReturnHook
                0x0000000000000000       0x14 ./APP/os_app_hooks.o
 .text.App_OS_IdleTaskHook
                0x0000000000000000        0xc ./APP/os_app_hooks.o
 .text.App_OS_InitHook
                0x0000000000000000        0xc ./APP/os_app_hooks.o
 .text.App_OS_StatTaskHook
                0x0000000000000000        0xc ./APP/os_app_hooks.o
 .text.App_OS_TaskSwHook
                0x0000000000000000        0xc ./APP/os_app_hooks.o
 .text.App_OS_TimeTickHook
                0x0000000000000000        0xc ./APP/os_app_hooks.o
 .debug_info    0x0000000000000000      0x8bc ./APP/os_app_hooks.o
 .debug_abbrev  0x0000000000000000      0x112 ./APP/os_app_hooks.o
 .debug_aranges
                0x0000000000000000       0x68 ./APP/os_app_hooks.o
 .debug_ranges  0x0000000000000000       0x58 ./APP/os_app_hooks.o
 .debug_line    0x0000000000000000      0x3c3 ./APP/os_app_hooks.o
 .debug_str     0x0000000000000000      0x80a ./APP/os_app_hooks.o
 .comment       0x0000000000000000       0x71 ./APP/os_app_hooks.o
 .ARM.attributes
                0x0000000000000000       0x39 ./APP/os_app_hooks.o
 .debug_frame   0x0000000000000000      0x114 ./APP/os_app_hooks.o
 .text          0x0000000000000000        0x0 /usr/lib/gcc/arm-none-eabi/6.2.0/../../../../arm-none-eabi/lib/armv7e-m/fpu/libm.a(lib_a-s_cos.o)
 .data          0x0000000000000000        0x0 /usr/lib/gcc/arm-none-eabi/6.2.0/../../../../arm-none-eabi/lib/armv7e-m/fpu/libm.a(lib_a-s_cos.o)
 .bss           0x0000000000000000        0x0 /usr/lib/gcc/arm-none-eabi/6.2.0/../../../../arm-none-eabi/lib/armv7e-m/fpu/libm.a(lib_a-s_cos.o)
 .text          0x0000000000000000        0x0 /usr/lib/gcc/arm-none-eabi/6.2.0/../../../../arm-none-eabi/lib/armv7e-m/fpu/libm.a(lib_a-s_sin.o)
 .data          0x0000000000000000        0x0 /usr/lib/gcc/arm-none-eabi/6.2.0/../../../../arm-none-eabi/lib/armv7e-m/fpu/libm.a(lib_a-s_sin.o)
 .bss           0x0000000000000000        0x0 /usr/lib/gcc/arm-none-eabi/6.2.0/../../../../arm-none-eabi/lib/armv7e-m/fpu/libm.a(lib_a-s_sin.o)
 .text          0x0000000000000000        0x0 /usr/lib/gcc/arm-none-eabi/6.2.0/../../../../arm-none-eabi/lib/armv7e-m/fpu/libm.a(lib_a-w_exp.o)
 .data          0x0000000000000000        0x0 /usr/lib/gcc/arm-none-eabi/6.2.0/../../../../arm-none-eabi/lib/armv7e-m/fpu/libm.a(lib_a-w_exp.o)
 .bss           0x0000000000000000        0x0 /usr/lib/gcc/arm-none-eabi/6.2.0/../../../../arm-none-eabi/lib/armv7e-m/fpu/libm.a(lib_a-w_exp.o)
 .text          0x0000000000000000        0x0 /usr/lib/gcc/arm-none-eabi/6.2.0/../../../../arm-none-eabi/lib/armv7e-m/fpu/libm.a(lib_a-e_exp.o)
 .data          0x0000000000000000        0x0 /usr/lib/gcc/arm-none-eabi/6.2.0/../../../../arm-none-eabi/lib/armv7e-m/fpu/libm.a(lib_a-e_exp.o)
 .bss           0x0000000000000000        0x0 /usr/lib/gcc/arm-none-eabi/6.2.0/../../../../arm-none-eabi/lib/armv7e-m/fpu/libm.a(lib_a-e_exp.o)
 .text          0x0000000000000000        0x0 /usr/lib/gcc/arm-none-eabi/6.2.0/../../../../arm-none-eabi/lib/armv7e-m/fpu/libm.a(lib_a-e_rem_pio2.o)
 .data          0x0000000000000000        0x0 /usr/lib/gcc/arm-none-eabi/6.2.0/../../../../arm-none-eabi/lib/armv7e-m/fpu/libm.a(lib_a-e_rem_pio2.o)
 .bss           0x0000000000000000        0x0 /usr/lib/gcc/arm-none-eabi/6.2.0/../../../../arm-none-eabi/lib/armv7e-m/fpu/libm.a(lib_a-e_rem_pio2.o)
 .text          0x0000000000000000        0x0 /usr/lib/gcc/arm-none-eabi/6.2.0/../../../../arm-none-eabi/lib/armv7e-m/fpu/libm.a(lib_a-k_cos.o)
 .data          0x0000000000000000        0x0 /usr/lib/gcc/arm-none-eabi/6.2.0/../../../../arm-none-eabi/lib/armv7e-m/fpu/libm.a(lib_a-k_cos.o)
 .bss           0x0000000000000000        0x0 /usr/lib/gcc/arm-none-eabi/6.2.0/../../../../arm-none-eabi/lib/armv7e-m/fpu/libm.a(lib_a-k_cos.o)
 .text          0x0000000000000000        0x0 /usr/lib/gcc/arm-none-eabi/6.2.0/../../../../arm-none-eabi/lib/armv7e-m/fpu/libm.a(lib_a-k_rem_pio2.o)
 .data          0x0000000000000000        0x0 /usr/lib/gcc/arm-none-eabi/6.2.0/../../../../arm-none-eabi/lib/armv7e-m/fpu/libm.a(lib_a-k_rem_pio2.o)
 .bss           0x0000000000000000        0x0 /usr/lib/gcc/arm-none-eabi/6.2.0/../../../../arm-none-eabi/lib/armv7e-m/fpu/libm.a(lib_a-k_rem_pio2.o)
 .text          0x0000000000000000        0x0 /usr/lib/gcc/arm-none-eabi/6.2.0/../../../../arm-none-eabi/lib/armv7e-m/fpu/libm.a(lib_a-k_sin.o)
 .data          0x0000000000000000        0x0 /usr/lib/gcc/arm-none-eabi/6.2.0/../../../../arm-none-eabi/lib/armv7e-m/fpu/libm.a(lib_a-k_sin.o)
 .bss           0x0000000000000000        0x0 /usr/lib/gcc/arm-none-eabi/6.2.0/../../../../arm-none-eabi/lib/armv7e-m/fpu/libm.a(lib_a-k_sin.o)
 .text          0x0000000000000000        0x0 /usr/lib/gcc/arm-none-eabi/6.2.0/../../../../arm-none-eabi/lib/armv7e-m/fpu/libm.a(lib_a-s_fabs.o)
 .data          0x0000000000000000        0x0 /usr/lib/gcc/arm-none-eabi/6.2.0/../../../../arm-none-eabi/lib/armv7e-m/fpu/libm.a(lib_a-s_fabs.o)
 .bss           0x0000000000000000        0x0 /usr/lib/gcc/arm-none-eabi/6.2.0/../../../../arm-none-eabi/lib/armv7e-m/fpu/libm.a(lib_a-s_fabs.o)
 .text          0x0000000000000000        0x0 /usr/lib/gcc/arm-none-eabi/6.2.0/../../../../arm-none-eabi/lib/armv7e-m/fpu/libm.a(lib_a-s_finite.o)
 .data          0x0000000000000000        0x0 /usr/lib/gcc/arm-none-eabi/6.2.0/../../../../arm-none-eabi/lib/armv7e-m/fpu/libm.a(lib_a-s_finite.o)
 .bss           0x0000000000000000        0x0 /usr/lib/gcc/arm-none-eabi/6.2.0/../../../../arm-none-eabi/lib/armv7e-m/fpu/libm.a(lib_a-s_finite.o)
 .text          0x0000000000000000        0x0 /usr/lib/gcc/arm-none-eabi/6.2.0/../../../../arm-none-eabi/lib/armv7e-m/fpu/libm.a(lib_a-s_floor.o)
 .data          0x0000000000000000        0x0 /usr/lib/gcc/arm-none-eabi/6.2.0/../../../../arm-none-eabi/lib/armv7e-m/fpu/libm.a(lib_a-s_floor.o)
 .bss           0x0000000000000000        0x0 /usr/lib/gcc/arm-none-eabi/6.2.0/../../../../arm-none-eabi/lib/armv7e-m/fpu/libm.a(lib_a-s_floor.o)
 .text          0x0000000000000000        0x0 /usr/lib/gcc/arm-none-eabi/6.2.0/../../../../arm-none-eabi/lib/armv7e-m/fpu/libm.a(lib_a-s_lib_ver.o)
 .data          0x0000000000000000        0x0 /usr/lib/gcc/arm-none-eabi/6.2.0/../../../../arm-none-eabi/lib/armv7e-m/fpu/libm.a(lib_a-s_lib_ver.o)
 .bss           0x0000000000000000        0x0 /usr/lib/gcc/arm-none-eabi/6.2.0/../../../../arm-none-eabi/lib/armv7e-m/fpu/libm.a(lib_a-s_lib_ver.o)
 .text          0x0000000000000000        0x0 /usr/lib/gcc/arm-none-eabi/6.2.0/../../../../arm-none-eabi/lib/armv7e-m/fpu/libm.a(lib_a-s_matherr.o)
 .data          0x0000000000000000        0x0 /usr/lib/gcc/arm-none-eabi/6.2.0/../../../../arm-none-eabi/lib/armv7e-m/fpu/libm.a(lib_a-s_matherr.o)
 .bss           0x0000000000000000        0x0 /usr/lib/gcc/arm-none-eabi/6.2.0/../../../../arm-none-eabi/lib/armv7e-m/fpu/libm.a(lib_a-s_matherr.o)
 .text          0x0000000000000000        0x0 /usr/lib/gcc/arm-none-eabi/6.2.0/../../../../arm-none-eabi/lib/armv7e-m/fpu/libm.a(lib_a-s_scalbn.o)
 .data          0x0000000000000000        0x0 /usr/lib/gcc/arm-none-eabi/6.2.0/../../../../arm-none-eabi/lib/armv7e-m/fpu/libm.a(lib_a-s_scalbn.o)
 .bss           0x0000000000000000        0x0 /usr/lib/gcc/arm-none-eabi/6.2.0/../../../../arm-none-eabi/lib/armv7e-m/fpu/libm.a(lib_a-s_scalbn.o)
 .text          0x0000000000000000        0x0 /usr/lib/gcc/arm-none-eabi/6.2.0/../../../../arm-none-eabi/lib/armv7e-m/fpu/libm.a(lib_a-s_copysign.o)
 .data          0x0000000000000000        0x0 /usr/lib/gcc/arm-none-eabi/6.2.0/../../../../arm-none-eabi/lib/armv7e-m/fpu/libm.a(lib_a-s_copysign.o)
 .bss           0x0000000000000000        0x0 /usr/lib/gcc/arm-none-eabi/6.2.0/../../../../arm-none-eabi/lib/armv7e-m/fpu/libm.a(lib_a-s_copysign.o)
 .data          0x0000000000000000        0x0 /usr/lib/gcc/arm-none-eabi/6.2.0/armv7e-m/fpu/libgcc.a(_arm_addsubdf3.o)
 .bss           0x0000000000000000        0x0 /usr/lib/gcc/arm-none-eabi/6.2.0/armv7e-m/fpu/libgcc.a(_arm_addsubdf3.o)
 .data          0x0000000000000000        0x0 /usr/lib/gcc/arm-none-eabi/6.2.0/armv7e-m/fpu/libgcc.a(_arm_muldivdf3.o)
 .bss           0x0000000000000000        0x0 /usr/lib/gcc/arm-none-eabi/6.2.0/armv7e-m/fpu/libgcc.a(_arm_muldivdf3.o)
 .data          0x0000000000000000        0x0 /usr/lib/gcc/arm-none-eabi/6.2.0/armv7e-m/fpu/libgcc.a(_arm_cmpdf2.o)
 .bss           0x0000000000000000        0x0 /usr/lib/gcc/arm-none-eabi/6.2.0/armv7e-m/fpu/libgcc.a(_arm_cmpdf2.o)
 .data          0x0000000000000000        0x0 /usr/lib/gcc/arm-none-eabi/6.2.0/armv7e-m/fpu/libgcc.a(_arm_fixdfsi.o)
 .bss           0x0000000000000000        0x0 /usr/lib/gcc/arm-none-eabi/6.2.0/armv7e-m/fpu/libgcc.a(_arm_fixdfsi.o)
 .data          0x0000000000000000        0x0 /usr/lib/gcc/arm-none-eabi/6.2.0/armv7e-m/fpu/libgcc.a(_arm_truncdfsf2.o)
 .bss           0x0000000000000000        0x0 /usr/lib/gcc/arm-none-eabi/6.2.0/armv7e-m/fpu/libgcc.a(_arm_truncdfsf2.o)
 .text          0x0000000000000000       0x30 /usr/lib/gcc/arm-none-eabi/6.2.0/armv7e-m/fpu/libgcc.a(_aeabi_uldivmod.o)
 .data          0x0000000000000000        0x0 /usr/lib/gcc/arm-none-eabi/6.2.0/armv7e-m/fpu/libgcc.a(_aeabi_uldivmod.o)
 .bss           0x0000000000000000        0x0 /usr/lib/gcc/arm-none-eabi/6.2.0/armv7e-m/fpu/libgcc.a(_aeabi_uldivmod.o)
 .debug_frame   0x0000000000000000       0x2c /usr/lib/gcc/arm-none-eabi/6.2.0/armv7e-m/fpu/libgcc.a(_aeabi_uldivmod.o)
 .ARM.attributes
                0x0000000000000000       0x22 /usr/lib/gcc/arm-none-eabi/6.2.0/armv7e-m/fpu/libgcc.a(_aeabi_uldivmod.o)
 .text          0x0000000000000000        0x0 /usr/lib/gcc/arm-none-eabi/6.2.0/armv7e-m/fpu/libgcc.a(_udivmoddi4.o)
 .data          0x0000000000000000        0x0 /usr/lib/gcc/arm-none-eabi/6.2.0/armv7e-m/fpu/libgcc.a(_udivmoddi4.o)
 .bss           0x0000000000000000        0x0 /usr/lib/gcc/arm-none-eabi/6.2.0/armv7e-m/fpu/libgcc.a(_udivmoddi4.o)
 .text.__udivmoddi4
                0x0000000000000000      0x2b8 /usr/lib/gcc/arm-none-eabi/6.2.0/armv7e-m/fpu/libgcc.a(_udivmoddi4.o)
 .ARM.extab.text.__udivmoddi4
                0x0000000000000000        0x0 /usr/lib/gcc/arm-none-eabi/6.2.0/armv7e-m/fpu/libgcc.a(_udivmoddi4.o)
 .ARM.exidx.text.__udivmoddi4
                0x0000000000000000        0x8 /usr/lib/gcc/arm-none-eabi/6.2.0/armv7e-m/fpu/libgcc.a(_udivmoddi4.o)
 .debug_frame   0x0000000000000000       0x38 /usr/lib/gcc/arm-none-eabi/6.2.0/armv7e-m/fpu/libgcc.a(_udivmoddi4.o)
 .ARM.attributes
                0x0000000000000000       0x34 /usr/lib/gcc/arm-none-eabi/6.2.0/armv7e-m/fpu/libgcc.a(_udivmoddi4.o)
 .text          0x0000000000000000        0x4 /usr/lib/gcc/arm-none-eabi/6.2.0/armv7e-m/fpu/libgcc.a(_dvmd_tls.o)
 .data          0x0000000000000000        0x0 /usr/lib/gcc/arm-none-eabi/6.2.0/armv7e-m/fpu/libgcc.a(_dvmd_tls.o)
 .bss           0x0000000000000000        0x0 /usr/lib/gcc/arm-none-eabi/6.2.0/armv7e-m/fpu/libgcc.a(_dvmd_tls.o)
 .ARM.attributes
                0x0000000000000000       0x22 /usr/lib/gcc/arm-none-eabi/6.2.0/armv7e-m/fpu/libgcc.a(_dvmd_tls.o)
 .text          0x0000000000000000        0x0 /usr/lib/gcc/arm-none-eabi/6.2.0/../../../../arm-none-eabi/lib/armv7e-m/fpu/libg_nano.a(lib_a-assert.o)
 .data          0x0000000000000000        0x0 /usr/lib/gcc/arm-none-eabi/6.2.0/../../../../arm-none-eabi/lib/armv7e-m/fpu/libg_nano.a(lib_a-assert.o)
 .bss           0x0000000000000000        0x0 /usr/lib/gcc/arm-none-eabi/6.2.0/../../../../arm-none-eabi/lib/armv7e-m/fpu/libg_nano.a(lib_a-assert.o)
 .text.__assert
                0x0000000000000000        0xa /usr/lib/gcc/arm-none-eabi/6.2.0/../../../../arm-none-eabi/lib/armv7e-m/fpu/libg_nano.a(lib_a-assert.o)
 .text          0x0000000000000000        0x0 /usr/lib/gcc/arm-none-eabi/6.2.0/../../../../arm-none-eabi/lib/armv7e-m/fpu/libg_nano.a(lib_a-atexit.o)
 .data          0x0000000000000000        0x0 /usr/lib/gcc/arm-none-eabi/6.2.0/../../../../arm-none-eabi/lib/armv7e-m/fpu/libg_nano.a(lib_a-atexit.o)
 .bss           0x0000000000000000        0x0 /usr/lib/gcc/arm-none-eabi/6.2.0/../../../../arm-none-eabi/lib/armv7e-m/fpu/libg_nano.a(lib_a-atexit.o)
 .text          0x0000000000000000        0x0 /usr/lib/gcc/arm-none-eabi/6.2.0/../../../../arm-none-eabi/lib/armv7e-m/fpu/libg_nano.a(lib_a-calloc.o)
 .data          0x0000000000000000        0x0 /usr/lib/gcc/arm-none-eabi/6.2.0/../../../../arm-none-eabi/lib/armv7e-m/fpu/libg_nano.a(lib_a-calloc.o)
 .bss           0x0000000000000000        0x0 /usr/lib/gcc/arm-none-eabi/6.2.0/../../../../arm-none-eabi/lib/armv7e-m/fpu/libg_nano.a(lib_a-calloc.o)
 .text.calloc   0x0000000000000000       0x10 /usr/lib/gcc/arm-none-eabi/6.2.0/../../../../arm-none-eabi/lib/armv7e-m/fpu/libg_nano.a(lib_a-calloc.o)
 .debug_frame   0x0000000000000000       0x20 /usr/lib/gcc/arm-none-eabi/6.2.0/../../../../arm-none-eabi/lib/armv7e-m/fpu/libg_nano.a(lib_a-calloc.o)
 .ARM.attributes
                0x0000000000000000       0x34 /usr/lib/gcc/arm-none-eabi/6.2.0/../../../../arm-none-eabi/lib/armv7e-m/fpu/libg_nano.a(lib_a-calloc.o)
 .text          0x0000000000000000        0x0 /usr/lib/gcc/arm-none-eabi/6.2.0/../../../../arm-none-eabi/lib/armv7e-m/fpu/libg_nano.a(lib_a-errno.o)
 .data          0x0000000000000000        0x0 /usr/lib/gcc/arm-none-eabi/6.2.0/../../../../arm-none-eabi/lib/armv7e-m/fpu/libg_nano.a(lib_a-errno.o)
 .bss           0x0000000000000000        0x0 /usr/lib/gcc/arm-none-eabi/6.2.0/../../../../arm-none-eabi/lib/armv7e-m/fpu/libg_nano.a(lib_a-errno.o)
 .text          0x0000000000000000        0x0 /usr/lib/gcc/arm-none-eabi/6.2.0/../../../../arm-none-eabi/lib/armv7e-m/fpu/libg_nano.a(lib_a-exit.o)
 .data          0x0000000000000000        0x0 /usr/lib/gcc/arm-none-eabi/6.2.0/../../../../arm-none-eabi/lib/armv7e-m/fpu/libg_nano.a(lib_a-exit.o)
 .bss           0x0000000000000000        0x0 /usr/lib/gcc/arm-none-eabi/6.2.0/../../../../arm-none-eabi/lib/armv7e-m/fpu/libg_nano.a(lib_a-exit.o)
 .text          0x0000000000000000        0x0 /usr/lib/gcc/arm-none-eabi/6.2.0/../../../../arm-none-eabi/lib/armv7e-m/fpu/libg_nano.a(lib_a-fini.o)
 .data          0x0000000000000000        0x0 /usr/lib/gcc/arm-none-eabi/6.2.0/../../../../arm-none-eabi/lib/armv7e-m/fpu/libg_nano.a(lib_a-fini.o)
 .bss           0x0000000000000000        0x0 /usr/lib/gcc/arm-none-eabi/6.2.0/../../../../arm-none-eabi/lib/armv7e-m/fpu/libg_nano.a(lib_a-fini.o)
 .text          0x0000000000000000        0x0 /usr/lib/gcc/arm-none-eabi/6.2.0/../../../../arm-none-eabi/lib/armv7e-m/fpu/libg_nano.a(lib_a-fprintf.o)
 .data          0x0000000000000000        0x0 /usr/lib/gcc/arm-none-eabi/6.2.0/../../../../arm-none-eabi/lib/armv7e-m/fpu/libg_nano.a(lib_a-fprintf.o)
 .bss           0x0000000000000000        0x0 /usr/lib/gcc/arm-none-eabi/6.2.0/../../../../arm-none-eabi/lib/armv7e-m/fpu/libg_nano.a(lib_a-fprintf.o)
 .text._fprintf_r
                0x0000000000000000       0x1a /usr/lib/gcc/arm-none-eabi/6.2.0/../../../../arm-none-eabi/lib/armv7e-m/fpu/libg_nano.a(lib_a-fprintf.o)
 .text          0x0000000000000000        0x0 /usr/lib/gcc/arm-none-eabi/6.2.0/../../../../arm-none-eabi/lib/armv7e-m/fpu/libg_nano.a(lib_a-impure.o)
 .data          0x0000000000000000        0x0 /usr/lib/gcc/arm-none-eabi/6.2.0/../../../../arm-none-eabi/lib/armv7e-m/fpu/libg_nano.a(lib_a-impure.o)
 .bss           0x0000000000000000        0x0 /usr/lib/gcc/arm-none-eabi/6.2.0/../../../../arm-none-eabi/lib/armv7e-m/fpu/libg_nano.a(lib_a-impure.o)
 .text          0x0000000000000000        0x0 /usr/lib/gcc/arm-none-eabi/6.2.0/../../../../arm-none-eabi/lib/armv7e-m/fpu/libg_nano.a(lib_a-init.o)
 .data          0x0000000000000000        0x0 /usr/lib/gcc/arm-none-eabi/6.2.0/../../../../arm-none-eabi/lib/armv7e-m/fpu/libg_nano.a(lib_a-init.o)
 .bss           0x0000000000000000        0x0 /usr/lib/gcc/arm-none-eabi/6.2.0/../../../../arm-none-eabi/lib/armv7e-m/fpu/libg_nano.a(lib_a-init.o)
 .text          0x0000000000000000        0x0 /usr/lib/gcc/arm-none-eabi/6.2.0/../../../../arm-none-eabi/lib/armv7e-m/fpu/libg_nano.a(lib_a-malloc.o)
 .data          0x0000000000000000        0x0 /usr/lib/gcc/arm-none-eabi/6.2.0/../../../../arm-none-eabi/lib/armv7e-m/fpu/libg_nano.a(lib_a-malloc.o)
 .bss           0x0000000000000000        0x0 /usr/lib/gcc/arm-none-eabi/6.2.0/../../../../arm-none-eabi/lib/armv7e-m/fpu/libg_nano.a(lib_a-malloc.o)
 .text          0x0000000000000000        0x0 /usr/lib/gcc/arm-none-eabi/6.2.0/../../../../arm-none-eabi/lib/armv7e-m/fpu/libg_nano.a(lib_a-memset.o)
 .data          0x0000000000000000        0x0 /usr/lib/gcc/arm-none-eabi/6.2.0/../../../../arm-none-eabi/lib/armv7e-m/fpu/libg_nano.a(lib_a-memset.o)
 .bss           0x0000000000000000        0x0 /usr/lib/gcc/arm-none-eabi/6.2.0/../../../../arm-none-eabi/lib/armv7e-m/fpu/libg_nano.a(lib_a-memset.o)
 .text          0x0000000000000000        0x0 /usr/lib/gcc/arm-none-eabi/6.2.0/../../../../arm-none-eabi/lib/armv7e-m/fpu/libg_nano.a(lib_a-nano-callocr.o)
 .data          0x0000000000000000        0x0 /usr/lib/gcc/arm-none-eabi/6.2.0/../../../../arm-none-eabi/lib/armv7e-m/fpu/libg_nano.a(lib_a-nano-callocr.o)
 .bss           0x0000000000000000        0x0 /usr/lib/gcc/arm-none-eabi/6.2.0/../../../../arm-none-eabi/lib/armv7e-m/fpu/libg_nano.a(lib_a-nano-callocr.o)
 .text._calloc_r
                0x0000000000000000       0x1c /usr/lib/gcc/arm-none-eabi/6.2.0/../../../../arm-none-eabi/lib/armv7e-m/fpu/libg_nano.a(lib_a-nano-callocr.o)
 .debug_frame   0x0000000000000000       0x2c /usr/lib/gcc/arm-none-eabi/6.2.0/../../../../arm-none-eabi/lib/armv7e-m/fpu/libg_nano.a(lib_a-nano-callocr.o)
 .ARM.attributes
                0x0000000000000000       0x34 /usr/lib/gcc/arm-none-eabi/6.2.0/../../../../arm-none-eabi/lib/armv7e-m/fpu/libg_nano.a(lib_a-nano-callocr.o)
 .text          0x0000000000000000        0x0 /usr/lib/gcc/arm-none-eabi/6.2.0/../../../../arm-none-eabi/lib/armv7e-m/fpu/libg_nano.a(lib_a-nano-freer.o)
 .data          0x0000000000000000        0x0 /usr/lib/gcc/arm-none-eabi/6.2.0/../../../../arm-none-eabi/lib/armv7e-m/fpu/libg_nano.a(lib_a-nano-freer.o)
 .bss           0x0000000000000000        0x0 /usr/lib/gcc/arm-none-eabi/6.2.0/../../../../arm-none-eabi/lib/armv7e-m/fpu/libg_nano.a(lib_a-nano-freer.o)
 .text          0x0000000000000000        0x0 /usr/lib/gcc/arm-none-eabi/6.2.0/../../../../arm-none-eabi/lib/armv7e-m/fpu/libg_nano.a(lib_a-nano-mallocr.o)
 .data          0x0000000000000000        0x0 /usr/lib/gcc/arm-none-eabi/6.2.0/../../../../arm-none-eabi/lib/armv7e-m/fpu/libg_nano.a(lib_a-nano-mallocr.o)
 .bss           0x0000000000000000        0x0 /usr/lib/gcc/arm-none-eabi/6.2.0/../../../../arm-none-eabi/lib/armv7e-m/fpu/libg_nano.a(lib_a-nano-mallocr.o)
 .text          0x0000000000000000        0x0 /usr/lib/gcc/arm-none-eabi/6.2.0/../../../../arm-none-eabi/lib/armv7e-m/fpu/libg_nano.a(lib_a-nano-vfprintf.o)
 .data          0x0000000000000000        0x0 /usr/lib/gcc/arm-none-eabi/6.2.0/../../../../arm-none-eabi/lib/armv7e-m/fpu/libg_nano.a(lib_a-nano-vfprintf.o)
 .bss           0x0000000000000000        0x0 /usr/lib/gcc/arm-none-eabi/6.2.0/../../../../arm-none-eabi/lib/armv7e-m/fpu/libg_nano.a(lib_a-nano-vfprintf.o)
 .text.__sprint_r
                0x0000000000000000       0x1a /usr/lib/gcc/arm-none-eabi/6.2.0/../../../../arm-none-eabi/lib/armv7e-m/fpu/libg_nano.a(lib_a-nano-vfprintf.o)
 .text.vfprintf
                0x0000000000000000       0x14 /usr/lib/gcc/arm-none-eabi/6.2.0/../../../../arm-none-eabi/lib/armv7e-m/fpu/libg_nano.a(lib_a-nano-vfprintf.o)
 .text          0x0000000000000000        0x0 /usr/lib/gcc/arm-none-eabi/6.2.0/../../../../arm-none-eabi/lib/armv7e-m/fpu/libg_nano.a(lib_a-nano-vfprintf_i.o)
 .data          0x0000000000000000        0x0 /usr/lib/gcc/arm-none-eabi/6.2.0/../../../../arm-none-eabi/lib/armv7e-m/fpu/libg_nano.a(lib_a-nano-vfprintf_i.o)
 .bss           0x0000000000000000        0x0 /usr/lib/gcc/arm-none-eabi/6.2.0/../../../../arm-none-eabi/lib/armv7e-m/fpu/libg_nano.a(lib_a-nano-vfprintf_i.o)
 .text          0x0000000000000000        0x0 /usr/lib/gcc/arm-none-eabi/6.2.0/../../../../arm-none-eabi/lib/armv7e-m/fpu/libg_nano.a(lib_a-sbrkr.o)
 .data          0x0000000000000000        0x0 /usr/lib/gcc/arm-none-eabi/6.2.0/../../../../arm-none-eabi/lib/armv7e-m/fpu/libg_nano.a(lib_a-sbrkr.o)
 .bss           0x0000000000000000        0x0 /usr/lib/gcc/arm-none-eabi/6.2.0/../../../../arm-none-eabi/lib/armv7e-m/fpu/libg_nano.a(lib_a-sbrkr.o)
 .text          0x0000000000000000        0x0 /usr/lib/gcc/arm-none-eabi/6.2.0/../../../../arm-none-eabi/lib/armv7e-m/fpu/libg_nano.a(lib_a-vsprintf.o)
 .data          0x0000000000000000        0x0 /usr/lib/gcc/arm-none-eabi/6.2.0/../../../../arm-none-eabi/lib/armv7e-m/fpu/libg_nano.a(lib_a-vsprintf.o)
 .bss           0x0000000000000000        0x0 /usr/lib/gcc/arm-none-eabi/6.2.0/../../../../arm-none-eabi/lib/armv7e-m/fpu/libg_nano.a(lib_a-vsprintf.o)
 .text          0x0000000000000000        0x0 /usr/lib/gcc/arm-none-eabi/6.2.0/../../../../arm-none-eabi/lib/armv7e-m/fpu/libg_nano.a(lib_a-wbuf.o)
 .data          0x0000000000000000        0x0 /usr/lib/gcc/arm-none-eabi/6.2.0/../../../../arm-none-eabi/lib/armv7e-m/fpu/libg_nano.a(lib_a-wbuf.o)
 .bss           0x0000000000000000        0x0 /usr/lib/gcc/arm-none-eabi/6.2.0/../../../../arm-none-eabi/lib/armv7e-m/fpu/libg_nano.a(lib_a-wbuf.o)
 .text.__swbuf  0x0000000000000000       0x10 /usr/lib/gcc/arm-none-eabi/6.2.0/../../../../arm-none-eabi/lib/armv7e-m/fpu/libg_nano.a(lib_a-wbuf.o)
 .text          0x0000000000000000        0x0 /usr/lib/gcc/arm-none-eabi/6.2.0/../../../../arm-none-eabi/lib/armv7e-m/fpu/libg_nano.a(lib_a-wsetup.o)
 .data          0x0000000000000000        0x0 /usr/lib/gcc/arm-none-eabi/6.2.0/../../../../arm-none-eabi/lib/armv7e-m/fpu/libg_nano.a(lib_a-wsetup.o)
 .bss           0x0000000000000000        0x0 /usr/lib/gcc/arm-none-eabi/6.2.0/../../../../arm-none-eabi/lib/armv7e-m/fpu/libg_nano.a(lib_a-wsetup.o)
 .text          0x0000000000000000        0x0 /usr/lib/gcc/arm-none-eabi/6.2.0/../../../../arm-none-eabi/lib/armv7e-m/fpu/libg_nano.a(lib_a-__atexit.o)
 .data          0x0000000000000000        0x0 /usr/lib/gcc/arm-none-eabi/6.2.0/../../../../arm-none-eabi/lib/armv7e-m/fpu/libg_nano.a(lib_a-__atexit.o)
 .bss           0x0000000000000000        0x0 /usr/lib/gcc/arm-none-eabi/6.2.0/../../../../arm-none-eabi/lib/armv7e-m/fpu/libg_nano.a(lib_a-__atexit.o)
 .data.__atexit_dummy
                0x0000000000000000        0x4 /usr/lib/gcc/arm-none-eabi/6.2.0/../../../../arm-none-eabi/lib/armv7e-m/fpu/libg_nano.a(lib_a-__atexit.o)
 .text          0x0000000000000000        0x0 /usr/lib/gcc/arm-none-eabi/6.2.0/../../../../arm-none-eabi/lib/armv7e-m/fpu/libg_nano.a(lib_a-__call_atexit.o)
 .data          0x0000000000000000        0x0 /usr/lib/gcc/arm-none-eabi/6.2.0/../../../../arm-none-eabi/lib/armv7e-m/fpu/libg_nano.a(lib_a-__call_atexit.o)
 .bss           0x0000000000000000        0x0 /usr/lib/gcc/arm-none-eabi/6.2.0/../../../../arm-none-eabi/lib/armv7e-m/fpu/libg_nano.a(lib_a-__call_atexit.o)
 .text          0x0000000000000000        0x0 /usr/lib/gcc/arm-none-eabi/6.2.0/../../../../arm-none-eabi/lib/armv7e-m/fpu/libg_nano.a(lib_a-abort.o)
 .data          0x0000000000000000        0x0 /usr/lib/gcc/arm-none-eabi/6.2.0/../../../../arm-none-eabi/lib/armv7e-m/fpu/libg_nano.a(lib_a-abort.o)
 .bss           0x0000000000000000        0x0 /usr/lib/gcc/arm-none-eabi/6.2.0/../../../../arm-none-eabi/lib/armv7e-m/fpu/libg_nano.a(lib_a-abort.o)
 .text          0x0000000000000000        0x0 /usr/lib/gcc/arm-none-eabi/6.2.0/../../../../arm-none-eabi/lib/armv7e-m/fpu/libg_nano.a(lib_a-fflush.o)
 .data          0x0000000000000000        0x0 /usr/lib/gcc/arm-none-eabi/6.2.0/../../../../arm-none-eabi/lib/armv7e-m/fpu/libg_nano.a(lib_a-fflush.o)
 .bss           0x0000000000000000        0x0 /usr/lib/gcc/arm-none-eabi/6.2.0/../../../../arm-none-eabi/lib/armv7e-m/fpu/libg_nano.a(lib_a-fflush.o)
 .text.fflush   0x0000000000000000       0x24 /usr/lib/gcc/arm-none-eabi/6.2.0/../../../../arm-none-eabi/lib/armv7e-m/fpu/libg_nano.a(lib_a-fflush.o)
 .text          0x0000000000000000        0x0 /usr/lib/gcc/arm-none-eabi/6.2.0/../../../../arm-none-eabi/lib/armv7e-m/fpu/libg_nano.a(lib_a-findfp.o)
 .data          0x0000000000000000        0x0 /usr/lib/gcc/arm-none-eabi/6.2.0/../../../../arm-none-eabi/lib/armv7e-m/fpu/libg_nano.a(lib_a-findfp.o)
 .bss           0x0000000000000000        0x0 /usr/lib/gcc/arm-none-eabi/6.2.0/../../../../arm-none-eabi/lib/armv7e-m/fpu/libg_nano.a(lib_a-findfp.o)
 .text.__fp_unlock
                0x0000000000000000        0x4 /usr/lib/gcc/arm-none-eabi/6.2.0/../../../../arm-none-eabi/lib/armv7e-m/fpu/libg_nano.a(lib_a-findfp.o)
 .text.__fp_lock
                0x0000000000000000        0x4 /usr/lib/gcc/arm-none-eabi/6.2.0/../../../../arm-none-eabi/lib/armv7e-m/fpu/libg_nano.a(lib_a-findfp.o)
 .text._cleanup
                0x0000000000000000        0xc /usr/lib/gcc/arm-none-eabi/6.2.0/../../../../arm-none-eabi/lib/armv7e-m/fpu/libg_nano.a(lib_a-findfp.o)
 .text.__sfp_lock_acquire
                0x0000000000000000        0x2 /usr/lib/gcc/arm-none-eabi/6.2.0/../../../../arm-none-eabi/lib/armv7e-m/fpu/libg_nano.a(lib_a-findfp.o)
 .text.__sfp_lock_release
                0x0000000000000000        0x2 /usr/lib/gcc/arm-none-eabi/6.2.0/../../../../arm-none-eabi/lib/armv7e-m/fpu/libg_nano.a(lib_a-findfp.o)
 .text.__sinit_lock_acquire
                0x0000000000000000        0x2 /usr/lib/gcc/arm-none-eabi/6.2.0/../../../../arm-none-eabi/lib/armv7e-m/fpu/libg_nano.a(lib_a-findfp.o)
 .text.__sinit_lock_release
                0x0000000000000000        0x2 /usr/lib/gcc/arm-none-eabi/6.2.0/../../../../arm-none-eabi/lib/armv7e-m/fpu/libg_nano.a(lib_a-findfp.o)
 .text.__fp_lock_all
                0x0000000000000000       0x14 /usr/lib/gcc/arm-none-eabi/6.2.0/../../../../arm-none-eabi/lib/armv7e-m/fpu/libg_nano.a(lib_a-findfp.o)
 .text.__fp_unlock_all
                0x0000000000000000       0x14 /usr/lib/gcc/arm-none-eabi/6.2.0/../../../../arm-none-eabi/lib/armv7e-m/fpu/libg_nano.a(lib_a-findfp.o)
 .text          0x0000000000000000        0x0 /usr/lib/gcc/arm-none-eabi/6.2.0/../../../../arm-none-eabi/lib/armv7e-m/fpu/libg_nano.a(lib_a-fvwrite.o)
 .data          0x0000000000000000        0x0 /usr/lib/gcc/arm-none-eabi/6.2.0/../../../../arm-none-eabi/lib/armv7e-m/fpu/libg_nano.a(lib_a-fvwrite.o)
 .bss           0x0000000000000000        0x0 /usr/lib/gcc/arm-none-eabi/6.2.0/../../../../arm-none-eabi/lib/armv7e-m/fpu/libg_nano.a(lib_a-fvwrite.o)
 .text.__sfvwrite_r
                0x0000000000000000      0x29c /usr/lib/gcc/arm-none-eabi/6.2.0/../../../../arm-none-eabi/lib/armv7e-m/fpu/libg_nano.a(lib_a-fvwrite.o)
 .debug_frame   0x0000000000000000       0x3c /usr/lib/gcc/arm-none-eabi/6.2.0/../../../../arm-none-eabi/lib/armv7e-m/fpu/libg_nano.a(lib_a-fvwrite.o)
 .ARM.attributes
                0x0000000000000000       0x34 /usr/lib/gcc/arm-none-eabi/6.2.0/../../../../arm-none-eabi/lib/armv7e-m/fpu/libg_nano.a(lib_a-fvwrite.o)
 .text          0x0000000000000000        0x0 /usr/lib/gcc/arm-none-eabi/6.2.0/../../../../arm-none-eabi/lib/armv7e-m/fpu/libg_nano.a(lib_a-fwalk.o)
 .data          0x0000000000000000        0x0 /usr/lib/gcc/arm-none-eabi/6.2.0/../../../../arm-none-eabi/lib/armv7e-m/fpu/libg_nano.a(lib_a-fwalk.o)
 .bss           0x0000000000000000        0x0 /usr/lib/gcc/arm-none-eabi/6.2.0/../../../../arm-none-eabi/lib/armv7e-m/fpu/libg_nano.a(lib_a-fwalk.o)
 .text._fwalk   0x0000000000000000       0x38 /usr/lib/gcc/arm-none-eabi/6.2.0/../../../../arm-none-eabi/lib/armv7e-m/fpu/libg_nano.a(lib_a-fwalk.o)
 .text          0x0000000000000000        0x0 /usr/lib/gcc/arm-none-eabi/6.2.0/../../../../arm-none-eabi/lib/armv7e-m/fpu/libg_nano.a(lib_a-makebuf.o)
 .data          0x0000000000000000        0x0 /usr/lib/gcc/arm-none-eabi/6.2.0/../../../../arm-none-eabi/lib/armv7e-m/fpu/libg_nano.a(lib_a-makebuf.o)
 .bss           0x0000000000000000        0x0 /usr/lib/gcc/arm-none-eabi/6.2.0/../../../../arm-none-eabi/lib/armv7e-m/fpu/libg_nano.a(lib_a-makebuf.o)
 .data          0x0000000000000000        0x0 /usr/lib/gcc/arm-none-eabi/6.2.0/../../../../arm-none-eabi/lib/armv7e-m/fpu/libg_nano.a(lib_a-memchr.o)
 .bss           0x0000000000000000        0x0 /usr/lib/gcc/arm-none-eabi/6.2.0/../../../../arm-none-eabi/lib/armv7e-m/fpu/libg_nano.a(lib_a-memchr.o)
 .text          0x0000000000000000        0x0 /usr/lib/gcc/arm-none-eabi/6.2.0/../../../../arm-none-eabi/lib/armv7e-m/fpu/libg_nano.a(lib_a-memcpy-stub.o)
 .data          0x0000000000000000        0x0 /usr/lib/gcc/arm-none-eabi/6.2.0/../../../../arm-none-eabi/lib/armv7e-m/fpu/libg_nano.a(lib_a-memcpy-stub.o)
 .bss           0x0000000000000000        0x0 /usr/lib/gcc/arm-none-eabi/6.2.0/../../../../arm-none-eabi/lib/armv7e-m/fpu/libg_nano.a(lib_a-memcpy-stub.o)
 .text          0x0000000000000000        0x0 /usr/lib/gcc/arm-none-eabi/6.2.0/../../../../arm-none-eabi/lib/armv7e-m/fpu/libg_nano.a(lib_a-memmove.o)
 .data          0x0000000000000000        0x0 /usr/lib/gcc/arm-none-eabi/6.2.0/../../../../arm-none-eabi/lib/armv7e-m/fpu/libg_nano.a(lib_a-memmove.o)
 .bss           0x0000000000000000        0x0 /usr/lib/gcc/arm-none-eabi/6.2.0/../../../../arm-none-eabi/lib/armv7e-m/fpu/libg_nano.a(lib_a-memmove.o)
 .text          0x0000000000000000        0x0 /usr/lib/gcc/arm-none-eabi/6.2.0/../../../../arm-none-eabi/lib/armv7e-m/fpu/libg_nano.a(lib_a-nano-reallocr.o)
 .data          0x0000000000000000        0x0 /usr/lib/gcc/arm-none-eabi/6.2.0/../../../../arm-none-eabi/lib/armv7e-m/fpu/libg_nano.a(lib_a-nano-reallocr.o)
 .bss           0x0000000000000000        0x0 /usr/lib/gcc/arm-none-eabi/6.2.0/../../../../arm-none-eabi/lib/armv7e-m/fpu/libg_nano.a(lib_a-nano-reallocr.o)
 .text          0x0000000000000000        0x0 /usr/lib/gcc/arm-none-eabi/6.2.0/../../../../arm-none-eabi/lib/armv7e-m/fpu/libg_nano.a(lib_a-nano-svfprintf.o)
 .data          0x0000000000000000        0x0 /usr/lib/gcc/arm-none-eabi/6.2.0/../../../../arm-none-eabi/lib/armv7e-m/fpu/libg_nano.a(lib_a-nano-svfprintf.o)
 .bss           0x0000000000000000        0x0 /usr/lib/gcc/arm-none-eabi/6.2.0/../../../../arm-none-eabi/lib/armv7e-m/fpu/libg_nano.a(lib_a-nano-svfprintf.o)
 .text.__ssprint_r
                0x0000000000000000       0xf4 /usr/lib/gcc/arm-none-eabi/6.2.0/../../../../arm-none-eabi/lib/armv7e-m/fpu/libg_nano.a(lib_a-nano-svfprintf.o)
 .text          0x0000000000000000        0x0 /usr/lib/gcc/arm-none-eabi/6.2.0/../../../../arm-none-eabi/lib/armv7e-m/fpu/libg_nano.a(lib_a-reent.o)
 .data          0x0000000000000000        0x0 /usr/lib/gcc/arm-none-eabi/6.2.0/../../../../arm-none-eabi/lib/armv7e-m/fpu/libg_nano.a(lib_a-reent.o)
 .bss           0x0000000000000000        0x0 /usr/lib/gcc/arm-none-eabi/6.2.0/../../../../arm-none-eabi/lib/armv7e-m/fpu/libg_nano.a(lib_a-reent.o)
 .text.cleanup_glue
                0x0000000000000000       0x1a /usr/lib/gcc/arm-none-eabi/6.2.0/../../../../arm-none-eabi/lib/armv7e-m/fpu/libg_nano.a(lib_a-reent.o)
 .text._reclaim_reent
                0x0000000000000000       0xb8 /usr/lib/gcc/arm-none-eabi/6.2.0/../../../../arm-none-eabi/lib/armv7e-m/fpu/libg_nano.a(lib_a-reent.o)
 .text          0x0000000000000000        0x0 /usr/lib/gcc/arm-none-eabi/6.2.0/../../../../arm-none-eabi/lib/armv7e-m/fpu/libg_nano.a(lib_a-signal.o)
 .data          0x0000000000000000        0x0 /usr/lib/gcc/arm-none-eabi/6.2.0/../../../../arm-none-eabi/lib/armv7e-m/fpu/libg_nano.a(lib_a-signal.o)
 .bss           0x0000000000000000        0x0 /usr/lib/gcc/arm-none-eabi/6.2.0/../../../../arm-none-eabi/lib/armv7e-m/fpu/libg_nano.a(lib_a-signal.o)
 .text._init_signal_r
                0x0000000000000000       0x2a /usr/lib/gcc/arm-none-eabi/6.2.0/../../../../arm-none-eabi/lib/armv7e-m/fpu/libg_nano.a(lib_a-signal.o)
 .text._signal_r
                0x0000000000000000       0x30 /usr/lib/gcc/arm-none-eabi/6.2.0/../../../../arm-none-eabi/lib/armv7e-m/fpu/libg_nano.a(lib_a-signal.o)
 .text.__sigtramp_r
                0x0000000000000000       0x48 /usr/lib/gcc/arm-none-eabi/6.2.0/../../../../arm-none-eabi/lib/armv7e-m/fpu/libg_nano.a(lib_a-signal.o)
 .text.signal   0x0000000000000000       0x10 /usr/lib/gcc/arm-none-eabi/6.2.0/../../../../arm-none-eabi/lib/armv7e-m/fpu/libg_nano.a(lib_a-signal.o)
 .text._init_signal
                0x0000000000000000        0xc /usr/lib/gcc/arm-none-eabi/6.2.0/../../../../arm-none-eabi/lib/armv7e-m/fpu/libg_nano.a(lib_a-signal.o)
 .text.__sigtramp
                0x0000000000000000       0x10 /usr/lib/gcc/arm-none-eabi/6.2.0/../../../../arm-none-eabi/lib/armv7e-m/fpu/libg_nano.a(lib_a-signal.o)
 .text          0x0000000000000000        0x0 /usr/lib/gcc/arm-none-eabi/6.2.0/../../../../arm-none-eabi/lib/armv7e-m/fpu/libg_nano.a(lib_a-signalr.o)
 .data          0x0000000000000000        0x0 /usr/lib/gcc/arm-none-eabi/6.2.0/../../../../arm-none-eabi/lib/armv7e-m/fpu/libg_nano.a(lib_a-signalr.o)
 .bss           0x0000000000000000        0x0 /usr/lib/gcc/arm-none-eabi/6.2.0/../../../../arm-none-eabi/lib/armv7e-m/fpu/libg_nano.a(lib_a-signalr.o)
 .text          0x0000000000000000        0x0 /usr/lib/gcc/arm-none-eabi/6.2.0/../../../../arm-none-eabi/lib/armv7e-m/fpu/libg_nano.a(lib_a-stdio.o)
 .data          0x0000000000000000        0x0 /usr/lib/gcc/arm-none-eabi/6.2.0/../../../../arm-none-eabi/lib/armv7e-m/fpu/libg_nano.a(lib_a-stdio.o)
 .bss           0x0000000000000000        0x0 /usr/lib/gcc/arm-none-eabi/6.2.0/../../../../arm-none-eabi/lib/armv7e-m/fpu/libg_nano.a(lib_a-stdio.o)
 .text.__seofread
                0x0000000000000000        0x4 /usr/lib/gcc/arm-none-eabi/6.2.0/../../../../arm-none-eabi/lib/armv7e-m/fpu/libg_nano.a(lib_a-stdio.o)
 .text          0x0000000000000000        0x0 /usr/lib/gcc/arm-none-eabi/6.2.0/../../../../arm-none-eabi/lib/armv7e-m/fpu/libg_nano.a(lib_a-writer.o)
 .data          0x0000000000000000        0x0 /usr/lib/gcc/arm-none-eabi/6.2.0/../../../../arm-none-eabi/lib/armv7e-m/fpu/libg_nano.a(lib_a-writer.o)
 .bss           0x0000000000000000        0x0 /usr/lib/gcc/arm-none-eabi/6.2.0/../../../../arm-none-eabi/lib/armv7e-m/fpu/libg_nano.a(lib_a-writer.o)
 .text          0x0000000000000000        0x0 /usr/lib/gcc/arm-none-eabi/6.2.0/../../../../arm-none-eabi/lib/armv7e-m/fpu/libg_nano.a(lib_a-closer.o)
 .data          0x0000000000000000        0x0 /usr/lib/gcc/arm-none-eabi/6.2.0/../../../../arm-none-eabi/lib/armv7e-m/fpu/libg_nano.a(lib_a-closer.o)
 .bss           0x0000000000000000        0x0 /usr/lib/gcc/arm-none-eabi/6.2.0/../../../../arm-none-eabi/lib/armv7e-m/fpu/libg_nano.a(lib_a-closer.o)
 .text          0x0000000000000000        0x0 /usr/lib/gcc/arm-none-eabi/6.2.0/../../../../arm-none-eabi/lib/armv7e-m/fpu/libg_nano.a(lib_a-fstatr.o)
 .data          0x0000000000000000        0x0 /usr/lib/gcc/arm-none-eabi/6.2.0/../../../../arm-none-eabi/lib/armv7e-m/fpu/libg_nano.a(lib_a-fstatr.o)
 .bss           0x0000000000000000        0x0 /usr/lib/gcc/arm-none-eabi/6.2.0/../../../../arm-none-eabi/lib/armv7e-m/fpu/libg_nano.a(lib_a-fstatr.o)
 .text          0x0000000000000000        0x0 /usr/lib/gcc/arm-none-eabi/6.2.0/../../../../arm-none-eabi/lib/armv7e-m/fpu/libg_nano.a(lib_a-isattyr.o)
 .data          0x0000000000000000        0x0 /usr/lib/gcc/arm-none-eabi/6.2.0/../../../../arm-none-eabi/lib/armv7e-m/fpu/libg_nano.a(lib_a-isattyr.o)
 .bss           0x0000000000000000        0x0 /usr/lib/gcc/arm-none-eabi/6.2.0/../../../../arm-none-eabi/lib/armv7e-m/fpu/libg_nano.a(lib_a-isattyr.o)
 .text          0x0000000000000000        0x0 /usr/lib/gcc/arm-none-eabi/6.2.0/../../../../arm-none-eabi/lib/armv7e-m/fpu/libg_nano.a(lib_a-lseekr.o)
 .data          0x0000000000000000        0x0 /usr/lib/gcc/arm-none-eabi/6.2.0/../../../../arm-none-eabi/lib/armv7e-m/fpu/libg_nano.a(lib_a-lseekr.o)
 .bss           0x0000000000000000        0x0 /usr/lib/gcc/arm-none-eabi/6.2.0/../../../../arm-none-eabi/lib/armv7e-m/fpu/libg_nano.a(lib_a-lseekr.o)
 .text          0x0000000000000000        0x0 /usr/lib/gcc/arm-none-eabi/6.2.0/../../../../arm-none-eabi/lib/armv7e-m/fpu/libg_nano.a(lib_a-nano-msizer.o)
 .data          0x0000000000000000        0x0 /usr/lib/gcc/arm-none-eabi/6.2.0/../../../../arm-none-eabi/lib/armv7e-m/fpu/libg_nano.a(lib_a-nano-msizer.o)
 .bss           0x0000000000000000        0x0 /usr/lib/gcc/arm-none-eabi/6.2.0/../../../../arm-none-eabi/lib/armv7e-m/fpu/libg_nano.a(lib_a-nano-msizer.o)
 .text          0x0000000000000000        0x0 /usr/lib/gcc/arm-none-eabi/6.2.0/../../../../arm-none-eabi/lib/armv7e-m/fpu/libg_nano.a(lib_a-readr.o)
 .data          0x0000000000000000        0x0 /usr/lib/gcc/arm-none-eabi/6.2.0/../../../../arm-none-eabi/lib/armv7e-m/fpu/libg_nano.a(lib_a-readr.o)
 .bss           0x0000000000000000        0x0 /usr/lib/gcc/arm-none-eabi/6.2.0/../../../../arm-none-eabi/lib/armv7e-m/fpu/libg_nano.a(lib_a-readr.o)
 .text          0x0000000000000000        0x0 /usr/lib/gcc/arm-none-eabi/6.2.0/../../../../arm-none-eabi/lib/armv7e-m/fpu/libnosys.a(close.o)
 .data          0x0000000000000000        0x0 /usr/lib/gcc/arm-none-eabi/6.2.0/../../../../arm-none-eabi/lib/armv7e-m/fpu/libnosys.a(close.o)
 .bss           0x0000000000000000        0x0 /usr/lib/gcc/arm-none-eabi/6.2.0/../../../../arm-none-eabi/lib/armv7e-m/fpu/libnosys.a(close.o)
 .text          0x0000000000000000        0x0 /usr/lib/gcc/arm-none-eabi/6.2.0/../../../../arm-none-eabi/lib/armv7e-m/fpu/libnosys.a(fstat.o)
 .data          0x0000000000000000        0x0 /usr/lib/gcc/arm-none-eabi/6.2.0/../../../../arm-none-eabi/lib/armv7e-m/fpu/libnosys.a(fstat.o)
 .bss           0x0000000000000000        0x0 /usr/lib/gcc/arm-none-eabi/6.2.0/../../../../arm-none-eabi/lib/armv7e-m/fpu/libnosys.a(fstat.o)
 .text          0x0000000000000000        0x0 /usr/lib/gcc/arm-none-eabi/6.2.0/../../../../arm-none-eabi/lib/armv7e-m/fpu/libnosys.a(getpid.o)
 .data          0x0000000000000000        0x0 /usr/lib/gcc/arm-none-eabi/6.2.0/../../../../arm-none-eabi/lib/armv7e-m/fpu/libnosys.a(getpid.o)
 .bss           0x0000000000000000        0x0 /usr/lib/gcc/arm-none-eabi/6.2.0/../../../../arm-none-eabi/lib/armv7e-m/fpu/libnosys.a(getpid.o)
 .text          0x0000000000000000        0x0 /usr/lib/gcc/arm-none-eabi/6.2.0/../../../../arm-none-eabi/lib/armv7e-m/fpu/libnosys.a(isatty.o)
 .data          0x0000000000000000        0x0 /usr/lib/gcc/arm-none-eabi/6.2.0/../../../../arm-none-eabi/lib/armv7e-m/fpu/libnosys.a(isatty.o)
 .bss           0x0000000000000000        0x0 /usr/lib/gcc/arm-none-eabi/6.2.0/../../../../arm-none-eabi/lib/armv7e-m/fpu/libnosys.a(isatty.o)
 .text          0x0000000000000000        0x0 /usr/lib/gcc/arm-none-eabi/6.2.0/../../../../arm-none-eabi/lib/armv7e-m/fpu/libnosys.a(kill.o)
 .data          0x0000000000000000        0x0 /usr/lib/gcc/arm-none-eabi/6.2.0/../../../../arm-none-eabi/lib/armv7e-m/fpu/libnosys.a(kill.o)
 .bss           0x0000000000000000        0x0 /usr/lib/gcc/arm-none-eabi/6.2.0/../../../../arm-none-eabi/lib/armv7e-m/fpu/libnosys.a(kill.o)
 .text          0x0000000000000000        0x0 /usr/lib/gcc/arm-none-eabi/6.2.0/../../../../arm-none-eabi/lib/armv7e-m/fpu/libnosys.a(lseek.o)
 .data          0x0000000000000000        0x0 /usr/lib/gcc/arm-none-eabi/6.2.0/../../../../arm-none-eabi/lib/armv7e-m/fpu/libnosys.a(lseek.o)
 .bss           0x0000000000000000        0x0 /usr/lib/gcc/arm-none-eabi/6.2.0/../../../../arm-none-eabi/lib/armv7e-m/fpu/libnosys.a(lseek.o)
 .text          0x0000000000000000        0x0 /usr/lib/gcc/arm-none-eabi/6.2.0/../../../../arm-none-eabi/lib/armv7e-m/fpu/libnosys.a(read.o)
 .data          0x0000000000000000        0x0 /usr/lib/gcc/arm-none-eabi/6.2.0/../../../../arm-none-eabi/lib/armv7e-m/fpu/libnosys.a(read.o)
 .bss           0x0000000000000000        0x0 /usr/lib/gcc/arm-none-eabi/6.2.0/../../../../arm-none-eabi/lib/armv7e-m/fpu/libnosys.a(read.o)
 .text          0x0000000000000000        0x0 /usr/lib/gcc/arm-none-eabi/6.2.0/../../../../arm-none-eabi/lib/armv7e-m/fpu/libnosys.a(sbrk.o)
 .data          0x0000000000000000        0x0 /usr/lib/gcc/arm-none-eabi/6.2.0/../../../../arm-none-eabi/lib/armv7e-m/fpu/libnosys.a(sbrk.o)
 .bss           0x0000000000000000        0x0 /usr/lib/gcc/arm-none-eabi/6.2.0/../../../../arm-none-eabi/lib/armv7e-m/fpu/libnosys.a(sbrk.o)
 .text          0x0000000000000000        0x0 /usr/lib/gcc/arm-none-eabi/6.2.0/../../../../arm-none-eabi/lib/armv7e-m/fpu/libnosys.a(write.o)
 .data          0x0000000000000000        0x0 /usr/lib/gcc/arm-none-eabi/6.2.0/../../../../arm-none-eabi/lib/armv7e-m/fpu/libnosys.a(write.o)
 .bss           0x0000000000000000        0x0 /usr/lib/gcc/arm-none-eabi/6.2.0/../../../../arm-none-eabi/lib/armv7e-m/fpu/libnosys.a(write.o)
 .text          0x0000000000000000        0x0 /usr/lib/gcc/arm-none-eabi/6.2.0/../../../../arm-none-eabi/lib/armv7e-m/fpu/libnosys.a(_exit.o)
 .data          0x0000000000000000        0x0 /usr/lib/gcc/arm-none-eabi/6.2.0/../../../../arm-none-eabi/lib/armv7e-m/fpu/libnosys.a(_exit.o)
 .bss           0x0000000000000000        0x0 /usr/lib/gcc/arm-none-eabi/6.2.0/../../../../arm-none-eabi/lib/armv7e-m/fpu/libnosys.a(_exit.o)
 .text          0x0000000000000000        0x0 /usr/lib/gcc/arm-none-eabi/6.2.0/armv7e-m/fpu/crtend.o
 .data          0x0000000000000000        0x0 /usr/lib/gcc/arm-none-eabi/6.2.0/armv7e-m/fpu/crtend.o
 .bss           0x0000000000000000        0x0 /usr/lib/gcc/arm-none-eabi/6.2.0/armv7e-m/fpu/crtend.o
 .eh_frame      0x0000000000000000        0x4 /usr/lib/gcc/arm-none-eabi/6.2.0/armv7e-m/fpu/crtend.o
 .text          0x0000000000000000        0x0 /usr/lib/gcc/arm-none-eabi/6.2.0/armv7e-m/fpu/crtn.o
 .data          0x0000000000000000        0x0 /usr/lib/gcc/arm-none-eabi/6.2.0/armv7e-m/fpu/crtn.o
 .bss           0x0000000000000000        0x0 /usr/lib/gcc/arm-none-eabi/6.2.0/armv7e-m/fpu/crtn.o

Memory Configuration

Name             Origin             Length             Attributes
m_interrupts     0x0000000000000000 0x0000000000000400 xr
m_text           0x0000000000000410 0x00000000000ffbf0 xr
m_interrupts_ram 0x000000001fff0000 0x0000000000000400 rw
m_data_1FFF0400  0x000000001fff0400 0x000000000000fc00 rw
m_data           0x0000000020000000 0x0000000000030000 rw
m_flash_config   0x0000000000000400 0x0000000000000010 xr
*default*        0x0000000000000000 0xffffffffffffffff

Linker script and memory map

LOAD /usr/lib/gcc/arm-none-eabi/6.2.0/armv7e-m/fpu/crti.o
LOAD /usr/lib/gcc/arm-none-eabi/6.2.0/armv7e-m/fpu/crtbegin.o
LOAD /usr/lib/gcc/arm-none-eabi/6.2.0/../../../../arm-none-eabi/lib/armv7e-m/fpu/crt0.o
LOAD ./uCOS-III/Source/os_cfg_app.o
LOAD ./uCOS-III/Source/os_core.o
LOAD ./uCOS-III/Source/os_dbg.o
LOAD ./uCOS-III/Source/os_flag.o
LOAD ./uCOS-III/Source/os_int.o
LOAD ./uCOS-III/Source/os_mem.o
LOAD ./uCOS-III/Source/os_msg.o
LOAD ./uCOS-III/Source/os_mutex.o
LOAD ./uCOS-III/Source/os_pend_multi.o
LOAD ./uCOS-III/Source/os_prio.o
LOAD ./uCOS-III/Source/os_q.o
LOAD ./uCOS-III/Source/os_sem.o
LOAD ./uCOS-III/Source/os_stat.o
LOAD ./uCOS-III/Source/os_task.o
LOAD ./uCOS-III/Source/os_tick.o
LOAD ./uCOS-III/Source/os_time.o
LOAD ./uCOS-III/Source/os_tmr.o
LOAD ./uCOS-III/Source/os_var.o
LOAD ./uCOS-III/Ports/ARM-Cortex-M4/Generic/GNU/os_cpu_a.o
LOAD ./uCOS-III/Ports/ARM-Cortex-M4/Generic/GNU/os_cpu_c.o
LOAD ./uC-LIB/lib_ascii.o
LOAD ./uC-LIB/lib_math.o
LOAD ./uC-LIB/lib_mem.o
LOAD ./uC-LIB/lib_str.o
LOAD ./uC-CPU/ARM-Cortex-M4/GNU/cpu_a.o
LOAD ./uC-CPU/ARM-Cortex-M4/GNU/cpu_c.o
LOAD ./uC-CPU/cpu_core.o
LOAD ./KSDK/platform/system/interrupt/src/fsl_interrupt_manager.o
LOAD ./KSDK/platform/system/clock/MK64F12/fsl_clock_K64F12.o
LOAD ./KSDK/platform/system/clock/fsl_clock_manager.o
LOAD ./KSDK/platform/startup/MK64F12/system_MK64F12.o
LOAD ./KSDK/platform/osa/src/fsl_os_abstraction_ucosiii.o
LOAD ./KSDK/platform/hal/uart/fsl_uart_hal.o
LOAD ./KSDK/platform/hal/sim/MK64F12/fsl_sim_hal_K64F12.o
LOAD ./KSDK/platform/hal/sim/fsl_sim_hal.o
LOAD ./KSDK/platform/hal/port/fsl_port_hal.o
LOAD ./KSDK/platform/hal/mcg/fsl_mcg_hal.o
LOAD ./KSDK/platform/hal/gpio/fsl_gpio_hal.o
LOAD ./KSDK/platform/drivers/uart/src/fsl_uart_driver.o
LOAD ./KSDK/platform/drivers/uart/common/fsl_uart_common.o
LOAD ./KSDK/platform/drivers/gpio/src/fsl_gpio_driver.o
LOAD ./KSDK/platform/drivers/gpio/common/fsl_gpio_common.o
LOAD ./KSDK/boards/frdmk64f120m/gpio_pins.o
LOAD ./KSDK/boards/frdmk64f120m/hardware_init.o
LOAD ./KSDK/boards/frdmk64f120m/pin_mux.o
LOAD ./BSP/KSDK/KDS/startup_MK64F12.o
LOAD ./BSP/KSDK/startup.o
LOAD ./BSP/bsp_ser.o
LOAD ./BSP/cpu_bsp.o
LOAD ./APP/app.o
LOAD ./APP/os_app_hooks.o
LOAD /usr/lib/gcc/arm-none-eabi/6.2.0/../../../../arm-none-eabi/lib/armv7e-m/fpu/libm.a
START GROUP
LOAD /usr/lib/gcc/arm-none-eabi/6.2.0/armv7e-m/fpu/libgcc.a
LOAD /usr/lib/gcc/arm-none-eabi/6.2.0/../../../../arm-none-eabi/lib/armv7e-m/fpu/libg_nano.a
LOAD /usr/lib/gcc/arm-none-eabi/6.2.0/../../../../arm-none-eabi/lib/armv7e-m/fpu/libc_nano.a
END GROUP
START GROUP
LOAD /usr/lib/gcc/arm-none-eabi/6.2.0/armv7e-m/fpu/libgcc.a
LOAD /usr/lib/gcc/arm-none-eabi/6.2.0/../../../../arm-none-eabi/lib/armv7e-m/fpu/libc_nano.a
LOAD /usr/lib/gcc/arm-none-eabi/6.2.0/../../../../arm-none-eabi/lib/armv7e-m/fpu/libnosys.a
END GROUP
START GROUP
LOAD /usr/lib/gcc/arm-none-eabi/6.2.0/armv7e-m/fpu/libgcc.a
LOAD /usr/lib/gcc/arm-none-eabi/6.2.0/../../../../arm-none-eabi/lib/armv7e-m/fpu/libc_nano.a
LOAD /usr/lib/gcc/arm-none-eabi/6.2.0/../../../../arm-none-eabi/lib/armv7e-m/fpu/libnosys.a
END GROUP
LOAD /usr/lib/gcc/arm-none-eabi/6.2.0/armv7e-m/fpu/crtend.o
LOAD /usr/lib/gcc/arm-none-eabi/6.2.0/armv7e-m/fpu/crtn.o
                0x0000000000008000                HEAP_SIZE = DEFINED (__heap_size__)?__heap_size__:0x8000
                0x0000000000004000                STACK_SIZE = DEFINED (__stack_size__)?__stack_size__:0x4000

.interrupts     0x0000000000000000      0x400
                0x0000000000000000                __VECTOR_TABLE = .
                0x0000000000000000                . = ALIGN (0x4)
 *(.isr_vector)
 .isr_vector    0x0000000000000000      0x400 ./BSP/KSDK/KDS/startup_MK64F12.o
                0x0000000000000000                __isr_vector
                0x0000000000000400                . = ALIGN (0x4)
                0x000000001fff0000                __VECTOR_RAM = ORIGIN (m_interrupts_ram)

.flash_config   0x0000000000000400       0x10
                0x0000000000000400                . = ALIGN (0x4)
 *(.FlashConfig)
 .FlashConfig   0x0000000000000400       0x10 ./BSP/KSDK/KDS/startup_MK64F12.o
                0x0000000000000410                . = ALIGN (0x4)

.text           0x0000000000000410     0xcee0
                0x0000000000000410                . = ALIGN (0x4)
 *(.text)
 .text          0x0000000000000410       0x68 /usr/lib/gcc/arm-none-eabi/6.2.0/../../../../arm-none-eabi/lib/armv7e-m/fpu/crt0.o
                0x0000000000000410                _mainCRTStartup
                0x0000000000000410                _start
 .text          0x0000000000000478       0xfc ./uCOS-III/Ports/ARM-Cortex-M4/Generic/GNU/os_cpu_a.o
                0x0000000000000478                OS_CPU_FP_Reg_Push
                0x000000000000048a                OS_CPU_FP_Reg_Pop
                0x0000000000000496                OSStartHighRdy
                0x0000000000000506                OSCtxSw
                0x000000000000050e                OSIntCtxSw
                0x0000000000000516                PendSV_Handler
 .text          0x0000000000000574       0x34 ./uC-CPU/ARM-Cortex-M4/GNU/cpu_a.o
                0x0000000000000574                CPU_IntDis
                0x0000000000000578                CPU_IntEn
                0x000000000000057c                CPU_SR_Save
                0x0000000000000584                CPU_SR_Restore
                0x000000000000058a                CPU_WaitForInt
                0x000000000000058e                CPU_WaitForExcept
                0x0000000000000592                CPU_CntLeadZeros
                0x0000000000000598                CPU_CntTrailZeros
                0x00000000000005a2                CPU_RevBits
 .text          0x00000000000005a8       0x3c ./BSP/KSDK/KDS/startup_MK64F12.o
                0x00000000000005a8                Reset_Handler
                0x00000000000005e0                CAN0_Rx_Warning_IRQHandler
                0x00000000000005e0                DebugMon_Handler
                0x00000000000005e0                I2C0_IRQHandler
                0x00000000000005e0                HardFault_Handler
                0x00000000000005e0                UART3_RX_TX_IRQHandler
                0x00000000000005e0                NMI_Handler
                0x00000000000005e0                UART0_RX_TX_IRQHandler
                0x00000000000005e0                I2C1_IRQHandler
                0x00000000000005e0                DMA2_IRQHandler
                0x00000000000005e0                ENET_Error_IRQHandler
                0x00000000000005e0                CAN0_Tx_Warning_IRQHandler
                0x00000000000005e0                PIT0_IRQHandler
                0x00000000000005e0                CAN0_ORed_Message_buffer_IRQHandler
                0x00000000000005e0                Watchdog_IRQHandler
                0x00000000000005e0                CMP2_IRQHandler
                0x00000000000005e0                ENET_Receive_IRQHandler
                0x00000000000005e0                ENET_1588_Timer_IRQHandler
                0x00000000000005e0                UART2_RX_TX_IRQHandler
                0x00000000000005e0                SWI_IRQHandler
                0x00000000000005e0                ADC0_IRQHandler
                0x00000000000005e0                UsageFault_Handler
                0x00000000000005e0                I2S0_Tx_IRQHandler
                0x00000000000005e0                CMT_IRQHandler
                0x00000000000005e0                UART4_RX_TX_IRQHandler
                0x00000000000005e0                SPI1_IRQHandler
                0x00000000000005e0                DefaultISR
                0x00000000000005e0                DMA9_IRQHandler
                0x00000000000005e0                DMA14_IRQHandler
                0x00000000000005e0                CMP1_IRQHandler
                0x00000000000005e0                Reserved71_IRQHandler
                0x00000000000005e0                PORTD_IRQHandler
                0x00000000000005e0                PORTB_IRQHandler
                0x00000000000005e0                UART4_ERR_IRQHandler
                0x00000000000005e0                ADC1_IRQHandler
                0x00000000000005e0                I2C2_IRQHandler
                0x00000000000005e0                PIT2_IRQHandler
                0x00000000000005e0                I2S0_Rx_IRQHandler
                0x00000000000005e0                LPTimer_IRQHandler
                0x00000000000005e0                DMA5_IRQHandler
                0x00000000000005e0                RTC_IRQHandler
                0x00000000000005e0                PDB0_IRQHandler
                0x00000000000005e0                FTM1_IRQHandler
                0x00000000000005e0                UART5_RX_TX_IRQHandler
                0x00000000000005e0                UART3_ERR_IRQHandler
                0x00000000000005e0                PIT3_IRQHandler
                0x00000000000005e0                SDHC_IRQHandler
                0x00000000000005e0                RTC_Seconds_IRQHandler
                0x00000000000005e0                MCG_IRQHandler
                0x00000000000005e0                FTFE_IRQHandler
                0x00000000000005e0                UART2_ERR_IRQHandler
                0x00000000000005e0                DMA11_IRQHandler
                0x00000000000005e0                UART5_ERR_IRQHandler
                0x00000000000005e0                Read_Collision_IRQHandler
                0x00000000000005e0                Default_Handler
                0x00000000000005e0                DMA7_IRQHandler
                0x00000000000005e0                ENET_Transmit_IRQHandler
                0x00000000000005e0                USBDCD_IRQHandler
                0x00000000000005e0                USB0_IRQHandler
                0x00000000000005e0                LLW_IRQHandler
                0x00000000000005e0                SPI2_IRQHandler
                0x00000000000005e0                MemManage_Handler
                0x00000000000005e0                SVC_Handler
                0x00000000000005e0                DMA13_IRQHandler
                0x00000000000005e0                DMA3_IRQHandler
                0x00000000000005e0                UART0_LON_IRQHandler
                0x00000000000005e0                RNG_IRQHandler
                0x00000000000005e0                DMA0_IRQHandler
                0x00000000000005e0                DMA15_IRQHandler
                0x00000000000005e0                DAC0_IRQHandler
                0x00000000000005e0                CAN0_Error_IRQHandler
                0x00000000000005e0                DMA4_IRQHandler
                0x00000000000005e0                PIT1_IRQHandler
                0x00000000000005e0                UART0_ERR_IRQHandler
                0x00000000000005e0                DMA_Error_IRQHandler
                0x00000000000005e0                LVD_LVW_IRQHandler
                0x00000000000005e0                SPI0_IRQHandler
                0x00000000000005e0                FTM0_IRQHandler
                0x00000000000005e0                PORTA_IRQHandler
                0x00000000000005e0                DAC1_IRQHandler
                0x00000000000005e0                MCM_IRQHandler
                0x00000000000005e0                DMA12_IRQHandler
                0x00000000000005e0                CAN0_Bus_Off_IRQHandler
                0x00000000000005e0                FTM3_IRQHandler
                0x00000000000005e0                PORTE_IRQHandler
                0x00000000000005e0                FTM2_IRQHandler
                0x00000000000005e0                BusFault_Handler
                0x00000000000005e0                DMA8_IRQHandler
                0x00000000000005e0                DMA10_IRQHandler
                0x00000000000005e0                CAN0_Wake_Up_IRQHandler
                0x00000000000005e0                UART1_ERR_IRQHandler
                0x00000000000005e0                UART1_RX_TX_IRQHandler
                0x00000000000005e0                CMP0_IRQHandler
                0x00000000000005e0                PORTC_IRQHandler
                0x00000000000005e0                DMA6_IRQHandler
                0x00000000000005e0                DMA1_IRQHandler
 .text          0x00000000000005e4      0x370 /usr/lib/gcc/arm-none-eabi/6.2.0/armv7e-m/fpu/libgcc.a(_arm_addsubdf3.o)
                0x00000000000005e4                __aeabi_drsub
                0x00000000000005ec                __aeabi_dsub
                0x00000000000005ec                __subdf3
                0x00000000000005f0                __adddf3
                0x00000000000005f0                __aeabi_dadd
                0x0000000000000868                __aeabi_ui2d
                0x0000000000000868                __floatunsidf
                0x0000000000000888                __floatsidf
                0x0000000000000888                __aeabi_i2d
                0x00000000000008ac                __extendsfdf2
                0x00000000000008ac                __aeabi_f2d
                0x00000000000008e8                __aeabi_ul2d
                0x00000000000008e8                __floatundidf
                0x00000000000008f8                __floatdidf
                0x00000000000008f8                __aeabi_l2d
 .text          0x0000000000000954      0x424 /usr/lib/gcc/arm-none-eabi/6.2.0/armv7e-m/fpu/libgcc.a(_arm_muldivdf3.o)
                0x0000000000000954                __aeabi_dmul
                0x0000000000000954                __muldf3
                0x0000000000000ba8                __aeabi_ddiv
                0x0000000000000ba8                __divdf3
 .text          0x0000000000000d78      0x110 /usr/lib/gcc/arm-none-eabi/6.2.0/armv7e-m/fpu/libgcc.a(_arm_cmpdf2.o)
                0x0000000000000d78                __gtdf2
                0x0000000000000d78                __gedf2
                0x0000000000000d80                __ltdf2
                0x0000000000000d80                __ledf2
                0x0000000000000d88                __cmpdf2
                0x0000000000000d88                __eqdf2
                0x0000000000000d88                __nedf2
                0x0000000000000e04                __aeabi_cdrcmple
                0x0000000000000e14                __aeabi_cdcmple
                0x0000000000000e14                __aeabi_cdcmpeq
                0x0000000000000e24                __aeabi_dcmpeq
                0x0000000000000e38                __aeabi_dcmplt
                0x0000000000000e4c                __aeabi_dcmple
                0x0000000000000e60                __aeabi_dcmpge
                0x0000000000000e74                __aeabi_dcmpgt
 .text          0x0000000000000e88       0x50 /usr/lib/gcc/arm-none-eabi/6.2.0/armv7e-m/fpu/libgcc.a(_arm_fixdfsi.o)
                0x0000000000000e88                __fixdfsi
                0x0000000000000e88                __aeabi_d2iz
 .text          0x0000000000000ed8       0xa0 /usr/lib/gcc/arm-none-eabi/6.2.0/armv7e-m/fpu/libgcc.a(_arm_truncdfsf2.o)
                0x0000000000000ed8                __aeabi_d2f
                0x0000000000000ed8                __truncdfsf2
 *fill*         0x0000000000000f78        0x8 
 .text          0x0000000000000f80       0xa0 /usr/lib/gcc/arm-none-eabi/6.2.0/../../../../arm-none-eabi/lib/armv7e-m/fpu/libg_nano.a(lib_a-memchr.o)
                0x0000000000000f80                memchr
 *(.text*)
 .text.__do_global_dtors_aux
                0x0000000000001020       0x24 /usr/lib/gcc/arm-none-eabi/6.2.0/armv7e-m/fpu/crtbegin.o
 .text.frame_dummy
                0x0000000000001044       0x34 /usr/lib/gcc/arm-none-eabi/6.2.0/armv7e-m/fpu/crtbegin.o
 .text.OSCfg_Init
                0x0000000000001078        0xc ./uCOS-III/Source/os_cfg_app.o
                0x0000000000001078                OSCfg_Init
 .text.OSInit   0x0000000000001084      0x1d4 ./uCOS-III/Source/os_core.o
                0x0000000000001084                OSInit
 .text.OSIntEnter
                0x0000000000001258       0x34 ./uCOS-III/Source/os_core.o
                0x0000000000001258                OSIntEnter
 .text.OSIntExit
                0x000000000000128c       0xc0 ./uCOS-III/Source/os_core.o
                0x000000000000128c                OSIntExit
 .text.OSSched  0x000000000000134c       0x94 ./uCOS-III/Source/os_core.o
                0x000000000000134c                OSSched
 .text.OSSchedLock
                0x00000000000013e0       0x54 ./uCOS-III/Source/os_core.o
                0x00000000000013e0                OSSchedLock
 .text.OSSchedUnlock
                0x0000000000001434       0x70 ./uCOS-III/Source/os_core.o
                0x0000000000001434                OSSchedUnlock
 .text.OSSchedRoundRobinCfg
                0x00000000000014a4       0x64 ./uCOS-III/Source/os_core.o
                0x00000000000014a4                OSSchedRoundRobinCfg
 .text.OSStart  0x0000000000001508       0x80 ./uCOS-III/Source/os_core.o
                0x0000000000001508                OSStart
 .text.OS_IdleTask
                0x0000000000001588       0x34 ./uCOS-III/Source/os_core.o
                0x0000000000001588                OS_IdleTask
 .text.OS_IdleTaskInit
                0x00000000000015bc       0x68 ./uCOS-III/Source/os_core.o
                0x00000000000015bc                OS_IdleTaskInit
 .text.OS_Pend  0x0000000000001624       0x84 ./uCOS-III/Source/os_core.o
                0x0000000000001624                OS_Pend
 .text.OS_PendDataInit
                0x00000000000016a8       0x6c ./uCOS-III/Source/os_core.o
                0x00000000000016a8                OS_PendDataInit
 .text.OS_PendDbgNameAdd
                0x0000000000001714       0x7c ./uCOS-III/Source/os_core.o
                0x0000000000001714                OS_PendDbgNameAdd
 .text.OS_PendDbgNameRemove
                0x0000000000001790       0x48 ./uCOS-III/Source/os_core.o
                0x0000000000001790                OS_PendDbgNameRemove
 .text.OS_PendListChangePrio
                0x00000000000017d8       0x54 ./uCOS-III/Source/os_core.o
                0x00000000000017d8                OS_PendListChangePrio
 .text.OS_PendListInit
                0x000000000000182c       0x24 ./uCOS-III/Source/os_core.o
                0x000000000000182c                OS_PendListInit
 .text.OS_PendListInsertPrio
                0x0000000000001850       0xe4 ./uCOS-III/Source/os_core.o
                0x0000000000001850                OS_PendListInsertPrio
 .text.OS_PendListRemove
                0x0000000000001934       0x54 ./uCOS-III/Source/os_core.o
                0x0000000000001934                OS_PendListRemove
 .text.OS_PendListRemove1
                0x0000000000001988       0x94 ./uCOS-III/Source/os_core.o
                0x0000000000001988                OS_PendListRemove1
 .text.OS_Post  0x0000000000001a1c      0x12c ./uCOS-III/Source/os_core.o
                0x0000000000001a1c                OS_Post
 .text.OS_Post1
                0x0000000000001b48       0x60 ./uCOS-III/Source/os_core.o
                0x0000000000001b48                OS_Post1
 .text.OS_RdyListInit
                0x0000000000001ba8       0x48 ./uCOS-III/Source/os_core.o
                0x0000000000001ba8                OS_RdyListInit
 .text.OS_RdyListInsert
                0x0000000000001bf0       0x3c ./uCOS-III/Source/os_core.o
                0x0000000000001bf0                OS_RdyListInsert
 .text.OS_RdyListInsertHead
                0x0000000000001c2c       0x80 ./uCOS-III/Source/os_core.o
                0x0000000000001c2c                OS_RdyListInsertHead
 .text.OS_RdyListInsertTail
                0x0000000000001cac       0x80 ./uCOS-III/Source/os_core.o
                0x0000000000001cac                OS_RdyListInsertTail
 .text.OS_RdyListMoveHeadToTail
                0x0000000000001d2c       0x90 ./uCOS-III/Source/os_core.o
                0x0000000000001d2c                OS_RdyListMoveHeadToTail
 .text.OS_RdyListRemove
                0x0000000000001dbc       0xac ./uCOS-III/Source/os_core.o
                0x0000000000001dbc                OS_RdyListRemove
 .text.OS_SchedRoundRobin
                0x0000000000001e68       0xb4 ./uCOS-III/Source/os_core.o
                0x0000000000001e68                OS_SchedRoundRobin
 .text.OS_TaskBlock
                0x0000000000001f1c       0x3c ./uCOS-III/Source/os_core.o
                0x0000000000001f1c                OS_TaskBlock
 .text.OS_Dbg_Init
                0x0000000000001f58      0x238 ./uCOS-III/Source/os_dbg.o
                0x0000000000001f58                OS_Dbg_Init
 .text.OSFlagCreate
                0x0000000000002190       0x60 ./uCOS-III/Source/os_flag.o
                0x0000000000002190                OSFlagCreate
 .text.OSFlagPend
                0x00000000000021f0      0x420 ./uCOS-III/Source/os_flag.o
                0x00000000000021f0                OSFlagPend
 .text.OSFlagPost
                0x0000000000002610       0x34 ./uCOS-III/Source/os_flag.o
                0x0000000000002610                OSFlagPost
 .text.OS_FlagBlock
                0x0000000000002644       0x44 ./uCOS-III/Source/os_flag.o
                0x0000000000002644                OS_FlagBlock
 .text.OS_FlagInit
                0x0000000000002688       0x2c ./uCOS-III/Source/os_flag.o
                0x0000000000002688                OS_FlagInit
 .text.OS_FlagDbgListAdd
                0x00000000000026b4       0x4c ./uCOS-III/Source/os_flag.o
                0x00000000000026b4                OS_FlagDbgListAdd
 .text.OS_FlagPost
                0x0000000000002700      0x1c8 ./uCOS-III/Source/os_flag.o
                0x0000000000002700                OS_FlagPost
 .text.OS_FlagTaskRdy
                0x00000000000028c8       0x94 ./uCOS-III/Source/os_flag.o
                0x00000000000028c8                OS_FlagTaskRdy
 .text.OS_MemInit
                0x000000000000295c       0x2c ./uCOS-III/Source/os_mem.o
                0x000000000000295c                OS_MemInit
 .text.OS_MsgPoolInit
                0x0000000000002988       0xac ./uCOS-III/Source/os_msg.o
                0x0000000000002988                OS_MsgPoolInit
 .text.OS_MsgQFreeAll
                0x0000000000002a34       0x78 ./uCOS-III/Source/os_msg.o
                0x0000000000002a34                OS_MsgQFreeAll
 .text.OS_MsgQInit
                0x0000000000002aac       0x34 ./uCOS-III/Source/os_msg.o
                0x0000000000002aac                OS_MsgQInit
 .text.OS_MsgQGet
                0x0000000000002ae0       0xc0 ./uCOS-III/Source/os_msg.o
                0x0000000000002ae0                OS_MsgQGet
 .text.OS_MsgQPut
                0x0000000000002ba0      0x10c ./uCOS-III/Source/os_msg.o
                0x0000000000002ba0                OS_MsgQPut
 .text.OSMutexCreate
                0x0000000000002cac       0x6c ./uCOS-III/Source/os_mutex.o
                0x0000000000002cac                OSMutexCreate
 .text.OSMutexPend
                0x0000000000002d18      0x1ac ./uCOS-III/Source/os_mutex.o
                0x0000000000002d18                OSMutexPend
 .text.OSMutexPost
                0x0000000000002ec4      0x154 ./uCOS-III/Source/os_mutex.o
                0x0000000000002ec4                OSMutexPost
 .text.OS_MutexDbgListAdd
                0x0000000000003018       0x4c ./uCOS-III/Source/os_mutex.o
                0x0000000000003018                OS_MutexDbgListAdd
 .text.OS_MutexInit
                0x0000000000003064       0x2c ./uCOS-III/Source/os_mutex.o
                0x0000000000003064                OS_MutexInit
 .text.OS_MutexGrpAdd
                0x0000000000003090       0x24 ./uCOS-III/Source/os_mutex.o
                0x0000000000003090                OS_MutexGrpAdd
 .text.OS_MutexGrpRemove
                0x00000000000030b4       0x38 ./uCOS-III/Source/os_mutex.o
                0x00000000000030b4                OS_MutexGrpRemove
 .text.OS_MutexGrpPrioFindHighest
                0x00000000000030ec       0x58 ./uCOS-III/Source/os_mutex.o
                0x00000000000030ec                OS_MutexGrpPrioFindHighest
 .text.OS_MutexGrpPostAll
                0x0000000000003144       0x84 ./uCOS-III/Source/os_mutex.o
                0x0000000000003144                OS_MutexGrpPostAll
 .text.OS_PrioInit
                0x00000000000031c8       0x30 ./uCOS-III/Source/os_prio.o
                0x00000000000031c8                OS_PrioInit
 .text.OS_PrioGetHighest
                0x00000000000031f8       0x48 ./uCOS-III/Source/os_prio.o
                0x00000000000031f8                OS_PrioGetHighest
 .text.OS_PrioInsert
                0x0000000000003240       0x4c ./uCOS-III/Source/os_prio.o
                0x0000000000003240                OS_PrioInsert
 .text.OS_PrioRemove
                0x000000000000328c       0x50 ./uCOS-III/Source/os_prio.o
                0x000000000000328c                OS_PrioRemove
 .text.OSQCreate
                0x00000000000032dc       0x64 ./uCOS-III/Source/os_q.o
                0x00000000000032dc                OSQCreate
 .text.OSQPend  0x0000000000003340      0x170 ./uCOS-III/Source/os_q.o
                0x0000000000003340                OSQPend
 .text.OSQPost  0x00000000000034b0       0x2c ./uCOS-III/Source/os_q.o
                0x00000000000034b0                OSQPost
 .text.OS_QDbgListAdd
                0x00000000000034dc       0x4c ./uCOS-III/Source/os_q.o
                0x00000000000034dc                OS_QDbgListAdd
 .text.OS_QInit
                0x0000000000003528       0x2c ./uCOS-III/Source/os_q.o
                0x0000000000003528                OS_QInit
 .text.OS_QPost
                0x0000000000003554       0xbc ./uCOS-III/Source/os_q.o
                0x0000000000003554                OS_QPost
 .text.OSSemCreate
                0x0000000000003610       0x60 ./uCOS-III/Source/os_sem.o
                0x0000000000003610                OSSemCreate
 .text.OSSemPend
                0x0000000000003670      0x158 ./uCOS-III/Source/os_sem.o
                0x0000000000003670                OSSemPend
 .text.OSSemPost
                0x00000000000037c8       0x2c ./uCOS-III/Source/os_sem.o
                0x00000000000037c8                OSSemPost
 .text.OS_SemDbgListAdd
                0x00000000000037f4       0x4c ./uCOS-III/Source/os_sem.o
                0x00000000000037f4                OS_SemDbgListAdd
 .text.OS_SemInit
                0x0000000000003840       0x2c ./uCOS-III/Source/os_sem.o
                0x0000000000003840                OS_SemInit
 .text.OS_SemPost
                0x000000000000386c       0xd4 ./uCOS-III/Source/os_sem.o
                0x000000000000386c                OS_SemPost
 .text.OSStatReset
                0x0000000000003940      0x100 ./uCOS-III/Source/os_stat.o
                0x0000000000003940                OSStatReset
 .text.OSStatTaskCPUUsageInit
                0x0000000000003a40       0xf0 ./uCOS-III/Source/os_stat.o
                0x0000000000003a40                OSStatTaskCPUUsageInit
 .text.OS_StatTask
                0x0000000000003b30      0x2f4 ./uCOS-III/Source/os_stat.o
                0x0000000000003b30                OS_StatTask
 .text.OS_StatTaskInit
                0x0000000000003e24       0xd4 ./uCOS-III/Source/os_stat.o
                0x0000000000003e24                OS_StatTaskInit
 .text.OSTaskCreate
                0x0000000000003ef8      0x184 ./uCOS-III/Source/os_task.o
                0x0000000000003ef8                OSTaskCreate
 .text.OSTaskDel
                0x000000000000407c      0x1b4 ./uCOS-III/Source/os_task.o
                0x000000000000407c                OSTaskDel
 .text.OSTaskResume
                0x0000000000004230       0x20 ./uCOS-III/Source/os_task.o
                0x0000000000004230                OSTaskResume
 .text.OSTaskSemPend
                0x0000000000004250      0x190 ./uCOS-III/Source/os_task.o
                0x0000000000004250                OSTaskSemPend
 .text.OSTaskSemPost
                0x00000000000043e0       0x2c ./uCOS-III/Source/os_task.o
                0x00000000000043e0                OSTaskSemPost
 .text.OSTaskStkChk
                0x000000000000440c       0xb0 ./uCOS-III/Source/os_task.o
                0x000000000000440c                OSTaskStkChk
 .text.OSTaskSuspend
                0x00000000000044bc       0x30 ./uCOS-III/Source/os_task.o
                0x00000000000044bc                OSTaskSuspend
 .text.OS_TaskDbgListAdd
                0x00000000000044ec       0x4c ./uCOS-III/Source/os_task.o
                0x00000000000044ec                OS_TaskDbgListAdd
 .text.OS_TaskDbgListRemove
                0x0000000000004538       0x84 ./uCOS-III/Source/os_task.o
                0x0000000000004538                OS_TaskDbgListRemove
 .text.OS_TaskInit
                0x00000000000045bc       0x38 ./uCOS-III/Source/os_task.o
                0x00000000000045bc                OS_TaskInit
 .text.OS_TaskInitTCB
                0x00000000000045f4      0x19c ./uCOS-III/Source/os_task.o
                0x00000000000045f4                OS_TaskInitTCB
 .text.OS_TaskResume
                0x0000000000004790      0x110 ./uCOS-III/Source/os_task.o
                0x0000000000004790                OS_TaskResume
 .text.OS_TaskReturn
                0x00000000000048a0       0x24 ./uCOS-III/Source/os_task.o
                0x00000000000048a0                OS_TaskReturn
 .text.OS_TaskSemPost
                0x00000000000048c4      0x114 ./uCOS-III/Source/os_task.o
                0x00000000000048c4                OS_TaskSemPost
 .text.OS_TaskSuspend
                0x00000000000049d8      0x104 ./uCOS-III/Source/os_task.o
                0x00000000000049d8                OS_TaskSuspend
 .text.OS_TaskChangePrio
                0x0000000000004adc      0x144 ./uCOS-III/Source/os_task.o
                0x0000000000004adc                OS_TaskChangePrio
 .text.OS_TickTask
                0x0000000000004c20       0x60 ./uCOS-III/Source/os_tick.o
                0x0000000000004c20                OS_TickTask
 .text.OS_TickTaskInit
                0x0000000000004c80       0xd8 ./uCOS-III/Source/os_tick.o
                0x0000000000004c80                OS_TickTaskInit
 .text.OS_TickListInsert
                0x0000000000004d58      0x130 ./uCOS-III/Source/os_tick.o
                0x0000000000004d58                OS_TickListInsert
 .text.OS_TickListInsertDly
                0x0000000000004e88      0x108 ./uCOS-III/Source/os_tick.o
                0x0000000000004e88                OS_TickListInsertDly
 .text.OS_TickListRemove
                0x0000000000004f90       0xc8 ./uCOS-III/Source/os_tick.o
                0x0000000000004f90                OS_TickListRemove
 .text.OS_TickListResetPeak
                0x0000000000005058        0xc ./uCOS-III/Source/os_tick.o
                0x0000000000005058                OS_TickListResetPeak
 .text.OS_TickListUpdateDly
                0x0000000000005064       0xb4 ./uCOS-III/Source/os_tick.o
 .text.OS_TickListUpdateTimeout
                0x0000000000005118      0x150 ./uCOS-III/Source/os_tick.o
 .text.OSTimeDly
                0x0000000000005268       0xb8 ./uCOS-III/Source/os_time.o
                0x0000000000005268                OSTimeDly
 .text.OSTimeDlyHMSM
                0x0000000000005320      0x138 ./uCOS-III/Source/os_time.o
                0x0000000000005320                OSTimeDlyHMSM
 .text.OSTimeTick
                0x0000000000005458       0x74 ./uCOS-III/Source/os_time.o
                0x0000000000005458                OSTimeTick
 .text.OS_TmrInit
                0x00000000000054cc      0x134 ./uCOS-III/Source/os_tmr.o
                0x00000000000054cc                OS_TmrInit
 .text.OS_TmrResetPeak
                0x0000000000005600        0xc ./uCOS-III/Source/os_tmr.o
                0x0000000000005600                OS_TmrResetPeak
 .text.OS_TmrUnlink
                0x000000000000560c       0x7c ./uCOS-III/Source/os_tmr.o
                0x000000000000560c                OS_TmrUnlink
 .text.OS_TmrTask
                0x0000000000005688       0xcc ./uCOS-III/Source/os_tmr.o
                0x0000000000005688                OS_TmrTask
 .text.OS_TmrLock
                0x0000000000005754       0x20 ./uCOS-III/Source/os_tmr.o
 .text.OS_TmrUnlock
                0x0000000000005774       0x1c ./uCOS-III/Source/os_tmr.o
 .text.OSIdleTaskHook
                0x0000000000005790       0x18 ./uCOS-III/Ports/ARM-Cortex-M4/Generic/GNU/os_cpu_c.o
                0x0000000000005790                OSIdleTaskHook
 .text.OSInitHook
                0x00000000000057a8       0x38 ./uCOS-III/Ports/ARM-Cortex-M4/Generic/GNU/os_cpu_c.o
                0x00000000000057a8                OSInitHook
 .text.OSStatTaskHook
                0x00000000000057e0       0x18 ./uCOS-III/Ports/ARM-Cortex-M4/Generic/GNU/os_cpu_c.o
                0x00000000000057e0                OSStatTaskHook
 .text.OSTaskCreateHook
                0x00000000000057f8       0x24 ./uCOS-III/Ports/ARM-Cortex-M4/Generic/GNU/os_cpu_c.o
                0x00000000000057f8                OSTaskCreateHook
 .text.OSTaskDelHook
                0x000000000000581c       0x24 ./uCOS-III/Ports/ARM-Cortex-M4/Generic/GNU/os_cpu_c.o
                0x000000000000581c                OSTaskDelHook
 .text.OSTaskReturnHook
                0x0000000000005840       0x24 ./uCOS-III/Ports/ARM-Cortex-M4/Generic/GNU/os_cpu_c.o
                0x0000000000005840                OSTaskReturnHook
 .text.OSTaskStkInit
                0x0000000000005864      0x34c ./uCOS-III/Ports/ARM-Cortex-M4/Generic/GNU/os_cpu_c.o
                0x0000000000005864                OSTaskStkInit
 .text.OSTaskSwHook
                0x0000000000005bb0       0xa8 ./uCOS-III/Ports/ARM-Cortex-M4/Generic/GNU/os_cpu_c.o
                0x0000000000005bb0                OSTaskSwHook
 .text.OSTimeTickHook
                0x0000000000005c58       0x18 ./uCOS-III/Ports/ARM-Cortex-M4/Generic/GNU/os_cpu_c.o
                0x0000000000005c58                OSTimeTickHook
 .text.SysTick_Handler
                0x0000000000005c70       0x1c ./uCOS-III/Ports/ARM-Cortex-M4/Generic/GNU/os_cpu_c.o
                0x0000000000005c70                SysTick_Handler
 .text.OS_CPU_SysTickInit
                0x0000000000005c8c       0x54 ./uCOS-III/Ports/ARM-Cortex-M4/Generic/GNU/os_cpu_c.o
                0x0000000000005c8c                OS_CPU_SysTickInit
 .text.Math_Init
                0x0000000000005ce0        0xc ./uC-LIB/lib_math.o
                0x0000000000005ce0                Math_Init
 .text.Math_RandSetSeed
                0x0000000000005cec       0x20 ./uC-LIB/lib_math.o
                0x0000000000005cec                Math_RandSetSeed
 .text.Math_Rand
                0x0000000000005d0c       0x30 ./uC-LIB/lib_math.o
                0x0000000000005d0c                Math_Rand
 .text.Math_RandSeed
                0x0000000000005d3c       0x30 ./uC-LIB/lib_math.o
                0x0000000000005d3c                Math_RandSeed
 .text.Mem_Init
                0x0000000000005d6c       0x4c ./uC-LIB/lib_mem.o
                0x0000000000005d6c                Mem_Init
 .text.Mem_Clr  0x0000000000005db8       0x1c ./uC-LIB/lib_mem.o
                0x0000000000005db8                Mem_Clr
 .text.Mem_Set  0x0000000000005dd4       0xb4 ./uC-LIB/lib_mem.o
                0x0000000000005dd4                Mem_Set
 .text.Mem_SegCreate
                0x0000000000005e88       0x34 ./uC-LIB/lib_mem.o
                0x0000000000005e88                Mem_SegCreate
 .text.Mem_SegCreateCritical
                0x0000000000005ebc       0x48 ./uC-LIB/lib_mem.o
 .text.Str_Len  0x0000000000005f04       0x20 ./uC-LIB/lib_str.o
                0x0000000000005f04                Str_Len
 .text.Str_Len_N
                0x0000000000005f24       0x44 ./uC-LIB/lib_str.o
                0x0000000000005f24                Str_Len_N
 .text.Str_Copy_N
                0x0000000000005f68       0x90 ./uC-LIB/lib_str.o
                0x0000000000005f68                Str_Copy_N
 .text.CPU_Init
                0x0000000000005ff8       0x10 ./uC-CPU/cpu_core.o
                0x0000000000005ff8                CPU_Init
 .text.CPU_SW_Exception
                0x0000000000006008        0x8 ./uC-CPU/cpu_core.o
                0x0000000000006008                CPU_SW_Exception
 .text.CPU_NameClr
                0x0000000000006010       0x1c ./uC-CPU/cpu_core.o
                0x0000000000006010                CPU_NameClr
 .text.CPU_NameSet
                0x000000000000602c       0x60 ./uC-CPU/cpu_core.o
                0x000000000000602c                CPU_NameSet
 .text.CPU_TS_TmrFreqSet
                0x000000000000608c       0x1c ./uC-CPU/cpu_core.o
                0x000000000000608c                CPU_TS_TmrFreqSet
 .text.CPU_NameInit
                0x00000000000060a8        0xc ./uC-CPU/cpu_core.o
 .text.CPU_TS_Init
                0x00000000000060b4       0x14 ./uC-CPU/cpu_core.o
 .text.INT_SYS_InstallHandler
                0x00000000000060c8       0x60 ./KSDK/platform/system/interrupt/src/fsl_interrupt_manager.o
                0x00000000000060c8                INT_SYS_InstallHandler
 .text.INT_SYS_EnableIRQGlobal
                0x0000000000006128       0x30 ./KSDK/platform/system/interrupt/src/fsl_interrupt_manager.o
                0x0000000000006128                INT_SYS_EnableIRQGlobal
 .text.INT_SYS_DisableIRQGlobal
                0x0000000000006158       0x1c ./KSDK/platform/system/interrupt/src/fsl_interrupt_manager.o
                0x0000000000006158                INT_SYS_DisableIRQGlobal
 .text.CLOCK_SYS_GetUartFreq
                0x0000000000006174       0x58 ./KSDK/platform/system/clock/MK64F12/fsl_clock_K64F12.o
                0x0000000000006174                CLOCK_SYS_GetUartFreq
 .text.CLOCK_SYS_GetSysClkFreq
                0x00000000000061cc       0x8c ./KSDK/platform/system/clock/fsl_clock_manager.o
                0x00000000000061cc                CLOCK_SYS_GetSysClkFreq
 .text.CLOCK_SYS_GetFreq
                0x0000000000006258      0x164 ./KSDK/platform/system/clock/fsl_clock_manager.o
                0x0000000000006258                CLOCK_SYS_GetFreq
 .text.SystemInit
                0x00000000000063bc      0x1f4 ./KSDK/platform/startup/MK64F12/system_MK64F12.o
                0x00000000000063bc                SystemInit
 .text.wait_timeout_msec_to_tick
                0x00000000000065b0       0x58 ./KSDK/platform/osa/src/fsl_os_abstraction_ucosiii.o
 .text.OSA_SemaCreate
                0x0000000000006608       0x34 ./KSDK/platform/osa/src/fsl_os_abstraction_ucosiii.o
                0x0000000000006608                OSA_SemaCreate
 .text.OSA_SemaWait
                0x000000000000663c       0x6c ./KSDK/platform/osa/src/fsl_os_abstraction_ucosiii.o
                0x000000000000663c                OSA_SemaWait
 .text.OSA_SemaPost
                0x00000000000066a8       0x2c ./KSDK/platform/osa/src/fsl_os_abstraction_ucosiii.o
                0x00000000000066a8                OSA_SemaPost
 .text.OSA_Init
                0x00000000000066d4       0x48 ./KSDK/platform/osa/src/fsl_os_abstraction_ucosiii.o
                0x00000000000066d4                OSA_Init
 .text.OSA_Start
                0x000000000000671c       0x24 ./KSDK/platform/osa/src/fsl_os_abstraction_ucosiii.o
                0x000000000000671c                OSA_Start
 .text.UART_HAL_Init
                0x0000000000006740       0x98 ./KSDK/platform/hal/uart/fsl_uart_hal.o
                0x0000000000006740                UART_HAL_Init
 .text.UART_HAL_SetBaudRate
                0x00000000000067d8       0xa4 ./KSDK/platform/hal/uart/fsl_uart_hal.o
                0x00000000000067d8                UART_HAL_SetBaudRate
 .text.UART_HAL_Putchar
                0x000000000000687c       0x24 ./KSDK/platform/hal/uart/fsl_uart_hal.o
                0x000000000000687c                UART_HAL_Putchar
 .text.UART_HAL_Getchar
                0x00000000000068a0       0x28 ./KSDK/platform/hal/uart/fsl_uart_hal.o
                0x00000000000068a0                UART_HAL_Getchar
 .text.UART_HAL_SetTxFifoCmd
                0x00000000000068c8       0x5c ./KSDK/platform/hal/uart/fsl_uart_hal.o
                0x00000000000068c8                UART_HAL_SetTxFifoCmd
 .text.UART_HAL_SetRxFifoCmd
                0x0000000000006924       0x5c ./KSDK/platform/hal/uart/fsl_uart_hal.o
                0x0000000000006924                UART_HAL_SetRxFifoCmd
 .text.UART_HAL_FlushTxFifo
                0x0000000000006980       0x40 ./KSDK/platform/hal/uart/fsl_uart_hal.o
                0x0000000000006980                UART_HAL_FlushTxFifo
 .text.UART_HAL_FlushRxFifo
                0x00000000000069c0       0x40 ./KSDK/platform/hal/uart/fsl_uart_hal.o
                0x00000000000069c0                UART_HAL_FlushRxFifo
 .text.UART_HAL_SetTxFifoWatermark
                0x0000000000006a00       0x3c ./KSDK/platform/hal/uart/fsl_uart_hal.o
                0x0000000000006a00                UART_HAL_SetTxFifoWatermark
 .text.UART_HAL_SetRxFifoWatermark
                0x0000000000006a3c       0x3c ./KSDK/platform/hal/uart/fsl_uart_hal.o
                0x0000000000006a3c                UART_HAL_SetRxFifoWatermark
 .text.SIM_HAL_EnablePortClock
                0x0000000000006a78       0x8c ./KSDK/platform/hal/sim/MK64F12/fsl_sim_hal_K64F12.o
                0x0000000000006a78                SIM_HAL_EnablePortClock
 .text.SIM_HAL_EnableUartClock
                0x0000000000006b04       0xa4 ./KSDK/platform/hal/sim/MK64F12/fsl_sim_hal_K64F12.o
                0x0000000000006b04                SIM_HAL_EnableUartClock
 .text.CLOCK_HAL_GetDivider
                0x0000000000006ba8      0x12c ./KSDK/platform/hal/sim/fsl_sim_hal.o
                0x0000000000006ba8                CLOCK_HAL_GetDivider
 .text.CLOCK_HAL_GetClkSrcMode
                0x0000000000006cd4       0x20 ./KSDK/platform/hal/mcg/fsl_mcg_hal.o
 .text.CLOCK_HAL_GetFllExternalRefDivider
                0x0000000000006cf4       0x24 ./KSDK/platform/hal/mcg/fsl_mcg_hal.o
 .text.CLOCK_HAL_GetInternalRefSelMode
                0x0000000000006d18       0x24 ./KSDK/platform/hal/mcg/fsl_mcg_hal.o
 .text.CLOCK_HAL_GetRange0Mode
                0x0000000000006d3c       0x24 ./KSDK/platform/hal/mcg/fsl_mcg_hal.o
 .text.CLOCK_HAL_GetInternalRefClkSelMode
                0x0000000000006d60       0x24 ./KSDK/platform/hal/mcg/fsl_mcg_hal.o
 .text.CLOCK_HAL_GetDmx32
                0x0000000000006d84       0x24 ./KSDK/platform/hal/mcg/fsl_mcg_hal.o
 .text.CLOCK_HAL_GetDigitalControlledOscRangeMode
                0x0000000000006da8       0x24 ./KSDK/platform/hal/mcg/fsl_mcg_hal.o
 .text.CLOCK_HAL_GetPllExternalRefDivider0
                0x0000000000006dcc       0x20 ./KSDK/platform/hal/mcg/fsl_mcg_hal.o
 .text.CLOCK_HAL_GetPllSelMode
                0x0000000000006dec       0x24 ./KSDK/platform/hal/mcg/fsl_mcg_hal.o
 .text.CLOCK_HAL_GetVoltCtrlOscDivider0
                0x0000000000006e10       0x20 ./KSDK/platform/hal/mcg/fsl_mcg_hal.o
 .text.CLOCK_HAL_GetFastClkInternalRefDivider
                0x0000000000006e30       0x24 ./KSDK/platform/hal/mcg/fsl_mcg_hal.o
 .text.CLOCK_HAL_GetOscselMode
                0x0000000000006e54       0x20 ./KSDK/platform/hal/mcg/fsl_mcg_hal.o
 .text.CLOCK_HAL_GetFllRefClk
                0x0000000000006e74       0x9c ./KSDK/platform/hal/mcg/fsl_mcg_hal.o
                0x0000000000006e74                CLOCK_HAL_GetFllRefClk
 .text.CLOCK_HAL_GetFllClk
                0x0000000000006f10       0xf4 ./KSDK/platform/hal/mcg/fsl_mcg_hal.o
                0x0000000000006f10                CLOCK_HAL_GetFllClk
 .text.CLOCK_HAL_GetPll0Clk
                0x0000000000007004       0x7c ./KSDK/platform/hal/mcg/fsl_mcg_hal.o
                0x0000000000007004                CLOCK_HAL_GetPll0Clk
 .text.CLOCK_HAL_GetInternalRefClk
                0x0000000000007080       0x3c ./KSDK/platform/hal/mcg/fsl_mcg_hal.o
                0x0000000000007080                CLOCK_HAL_GetInternalRefClk
 .text.CLOCK_HAL_GetOutClk
                0x00000000000070bc       0xa8 ./KSDK/platform/hal/mcg/fsl_mcg_hal.o
                0x00000000000070bc                CLOCK_HAL_GetOutClk
 .text.GPIO_HAL_SetPinDir
                0x0000000000007164       0x68 ./KSDK/platform/hal/gpio/fsl_gpio_hal.o
                0x0000000000007164                GPIO_HAL_SetPinDir
 .text.GPIO_HAL_WritePinOutput
                0x00000000000071cc       0x54 ./KSDK/platform/hal/gpio/fsl_gpio_hal.o
                0x00000000000071cc                GPIO_HAL_WritePinOutput
 .text.NVIC_EnableIRQ
                0x0000000000007220       0x30 ./KSDK/platform/drivers/uart/src/fsl_uart_driver.o
 .text.UART_HAL_EnableTransmitter
                0x0000000000007250       0x24 ./KSDK/platform/drivers/uart/src/fsl_uart_driver.o
 .text.UART_HAL_EnableReceiver
                0x0000000000007274       0x24 ./KSDK/platform/drivers/uart/src/fsl_uart_driver.o
 .text.UART_HAL_SetBitCountPerChar
                0x0000000000007298       0x28 ./KSDK/platform/drivers/uart/src/fsl_uart_driver.o
 .text.UART_HAL_SetParityMode
                0x00000000000072c0       0x2c ./KSDK/platform/drivers/uart/src/fsl_uart_driver.o
 .text.UART_HAL_SetStopBitCount
                0x00000000000072ec       0x24 ./KSDK/platform/drivers/uart/src/fsl_uart_driver.o
 .text.UART_HAL_SetTxDataRegEmptyIntCmd
                0x0000000000007310       0x28 ./KSDK/platform/drivers/uart/src/fsl_uart_driver.o
 .text.UART_HAL_GetTxDataRegEmptyIntCmd
                0x0000000000007338       0x30 ./KSDK/platform/drivers/uart/src/fsl_uart_driver.o
 .text.UART_HAL_SetRxDataRegFullIntCmd
                0x0000000000007368       0x28 ./KSDK/platform/drivers/uart/src/fsl_uart_driver.o
 .text.UART_HAL_GetRxDataRegFullIntCmd
                0x0000000000007390       0x30 ./KSDK/platform/drivers/uart/src/fsl_uart_driver.o
 .text.UART_HAL_IsTxDataRegEmpty
                0x00000000000073c0       0x30 ./KSDK/platform/drivers/uart/src/fsl_uart_driver.o
 .text.UART_HAL_IsRxDataRegFull
                0x00000000000073f0       0x30 ./KSDK/platform/drivers/uart/src/fsl_uart_driver.o
 .text.UART_HAL_GetTxFifoSize
                0x0000000000007420       0x24 ./KSDK/platform/drivers/uart/src/fsl_uart_driver.o
 .text.UART_HAL_GetTxDatawordCountInFifo
                0x0000000000007444       0x1c ./KSDK/platform/drivers/uart/src/fsl_uart_driver.o
 .text.UART_HAL_GetRxDatawordCountInFifo
                0x0000000000007460       0x1c ./KSDK/platform/drivers/uart/src/fsl_uart_driver.o
 .text.CLOCK_SYS_EnableUartClock
                0x000000000000747c       0x20 ./KSDK/platform/drivers/uart/src/fsl_uart_driver.o
 .text.INT_SYS_EnableIRQ
                0x000000000000749c       0x54 ./KSDK/platform/drivers/uart/src/fsl_uart_driver.o
 .text.UART_DRV_Init
                0x00000000000074f0      0x170 ./KSDK/platform/drivers/uart/src/fsl_uart_driver.o
                0x00000000000074f0                UART_DRV_Init
 .text.UART_DRV_InstallRxCallback
                0x0000000000007660       0x54 ./KSDK/platform/drivers/uart/src/fsl_uart_driver.o
                0x0000000000007660                UART_DRV_InstallRxCallback
 .text.UART_DRV_CompleteSendData
                0x00000000000076b4       0x6c ./KSDK/platform/drivers/uart/src/fsl_uart_driver.o
 .text.UART_DRV_StartSendData
                0x0000000000007720       0xcc ./KSDK/platform/drivers/uart/src/fsl_uart_driver.o
 .text.UART_DRV_CompleteReceiveData
                0x00000000000077ec       0x6c ./KSDK/platform/drivers/uart/src/fsl_uart_driver.o
 .text.UART_DRV_SendDataBlocking
                0x0000000000007858       0xc0 ./KSDK/platform/drivers/uart/src/fsl_uart_driver.o
                0x0000000000007858                UART_DRV_SendDataBlocking
 .text.UART_DRV_AbortSendingData
                0x0000000000007918       0x5c ./KSDK/platform/drivers/uart/src/fsl_uart_driver.o
                0x0000000000007918                UART_DRV_AbortSendingData
 .text.UART_DRV_IRQHandler
                0x0000000000007974      0x140 ./KSDK/platform/drivers/uart/src/fsl_uart_driver.o
                0x0000000000007974                UART_DRV_IRQHandler
 .text.NVIC_EnableIRQ
                0x0000000000007ab4       0x30 ./KSDK/platform/drivers/gpio/src/fsl_gpio_driver.o
 .text.PORT_HAL_SetPullMode
                0x0000000000007ae4       0x44 ./KSDK/platform/drivers/gpio/src/fsl_gpio_driver.o
 .text.PORT_HAL_SetPullCmd
                0x0000000000007b28       0x48 ./KSDK/platform/drivers/gpio/src/fsl_gpio_driver.o
 .text.PORT_HAL_SetSlewRateMode
                0x0000000000007b70       0x48 ./KSDK/platform/drivers/gpio/src/fsl_gpio_driver.o
 .text.PORT_HAL_SetPassiveFilterCmd
                0x0000000000007bb8       0x48 ./KSDK/platform/drivers/gpio/src/fsl_gpio_driver.o
 .text.PORT_HAL_SetOpenDrainCmd
                0x0000000000007c00       0x48 ./KSDK/platform/drivers/gpio/src/fsl_gpio_driver.o
 .text.PORT_HAL_SetDriveStrengthMode
                0x0000000000007c48       0x48 ./KSDK/platform/drivers/gpio/src/fsl_gpio_driver.o
 .text.PORT_HAL_SetDigitalFilterCmd
                0x0000000000007c90       0x4c ./KSDK/platform/drivers/gpio/src/fsl_gpio_driver.o
 .text.PORT_HAL_SetPinIntMode
                0x0000000000007cdc       0x58 ./KSDK/platform/drivers/gpio/src/fsl_gpio_driver.o
 .text.GPIO_HAL_TogglePinOutput
                0x0000000000007d34       0x3c ./KSDK/platform/drivers/gpio/src/fsl_gpio_driver.o
 .text.CLOCK_SYS_EnablePortClock
                0x0000000000007d70       0x20 ./KSDK/platform/drivers/gpio/src/fsl_gpio_driver.o
 .text.INT_SYS_EnableIRQ
                0x0000000000007d90       0x54 ./KSDK/platform/drivers/gpio/src/fsl_gpio_driver.o
 .text.GPIO_DRV_Init
                0x0000000000007de4       0x50 ./KSDK/platform/drivers/gpio/src/fsl_gpio_driver.o
                0x0000000000007de4                GPIO_DRV_Init
 .text.GPIO_DRV_InputPinInit
                0x0000000000007e34       0xbc ./KSDK/platform/drivers/gpio/src/fsl_gpio_driver.o
                0x0000000000007e34                GPIO_DRV_InputPinInit
 .text.GPIO_DRV_OutputPinInit
                0x0000000000007ef0       0x84 ./KSDK/platform/drivers/gpio/src/fsl_gpio_driver.o
                0x0000000000007ef0                GPIO_DRV_OutputPinInit
 .text.GPIO_DRV_TogglePinOutput
                0x0000000000007f74       0x30 ./KSDK/platform/drivers/gpio/src/fsl_gpio_driver.o
                0x0000000000007f74                GPIO_DRV_TogglePinOutput
 .text.CLOCK_SYS_EnablePortClock
                0x0000000000007fa4       0x20 ./KSDK/boards/frdmk64f120m/hardware_init.o
 .text.hardware_init
                0x0000000000007fc4       0x64 ./KSDK/boards/frdmk64f120m/hardware_init.o
                0x0000000000007fc4                hardware_init
 .text.PORT_HAL_SetPullMode
                0x0000000000008028       0x44 ./KSDK/boards/frdmk64f120m/pin_mux.o
 .text.PORT_HAL_SetPullCmd
                0x000000000000806c       0x48 ./KSDK/boards/frdmk64f120m/pin_mux.o
 .text.PORT_HAL_SetSlewRateMode
                0x00000000000080b4       0x48 ./KSDK/boards/frdmk64f120m/pin_mux.o
 .text.PORT_HAL_SetPassiveFilterCmd
                0x00000000000080fc       0x48 ./KSDK/boards/frdmk64f120m/pin_mux.o
 .text.PORT_HAL_SetOpenDrainCmd
                0x0000000000008144       0x48 ./KSDK/boards/frdmk64f120m/pin_mux.o
 .text.PORT_HAL_SetDriveStrengthMode
                0x000000000000818c       0x48 ./KSDK/boards/frdmk64f120m/pin_mux.o
 .text.PORT_HAL_SetMuxMode
                0x00000000000081d4       0x54 ./KSDK/boards/frdmk64f120m/pin_mux.o
 .text.configure_enet_pins
                0x0000000000008228       0xc4 ./KSDK/boards/frdmk64f120m/pin_mux.o
                0x0000000000008228                configure_enet_pins
 .text.configure_gpio_pins
                0x00000000000082ec      0x134 ./KSDK/boards/frdmk64f120m/pin_mux.o
                0x00000000000082ec                configure_gpio_pins
 .text.configure_i2c_pins
                0x0000000000008420       0x78 ./KSDK/boards/frdmk64f120m/pin_mux.o
                0x0000000000008420                configure_i2c_pins
 .text.configure_sdhc_pins
                0x0000000000008498      0x104 ./KSDK/boards/frdmk64f120m/pin_mux.o
                0x0000000000008498                configure_sdhc_pins
 .text.configure_spi_pins
                0x000000000000859c       0x74 ./KSDK/boards/frdmk64f120m/pin_mux.o
                0x000000000000859c                configure_spi_pins
 .text.configure_uart_pins
                0x0000000000008610       0x50 ./KSDK/boards/frdmk64f120m/pin_mux.o
                0x0000000000008610                configure_uart_pins
 .text.init_data_bss
                0x0000000000008660       0xb8 ./BSP/KSDK/startup.o
                0x0000000000008660                init_data_bss
 .text.BSP_Ser_Init
                0x0000000000008718       0x70 ./BSP/bsp_ser.o
                0x0000000000008718                BSP_Ser_Init
 .text.BSP_Ser_Printf
                0x0000000000008788       0x3c ./BSP/bsp_ser.o
                0x0000000000008788                BSP_Ser_Printf
 .text.BSP_Ser_WrStr
                0x00000000000087c4       0x44 ./BSP/bsp_ser.o
                0x00000000000087c4                BSP_Ser_WrStr
 .text.BSP_Ser_ISR_Handler
                0x0000000000008808       0x1c ./BSP/bsp_ser.o
 .text.RxCallBackFnct
                0x0000000000008824       0x18 ./BSP/bsp_ser.o
 .text.CPU_TS_TmrInit
                0x000000000000883c       0x48 ./BSP/cpu_bsp.o
                0x000000000000883c                CPU_TS_TmrInit
 .text.main     0x0000000000008884       0x70 ./APP/app.o
                0x0000000000008884                main
 .text.AppTaskStart
                0x00000000000088f4       0x64 ./APP/app.o
 .text.AppObjCreate
                0x0000000000008958       0x70 ./APP/app.o
 .text.AppTaskCreate
                0x00000000000089c8      0x10c ./APP/app.o
 .text.App_TaskObj0
                0x0000000000008ad4       0xa0 ./APP/app.o
 .text.App_TaskObj1
                0x0000000000008b74       0x9c ./APP/app.o
 .text.App_TaskEq0Fp
                0x0000000000008c10      0x318 ./APP/app.o
 .text.App_TaskEq1Fp
                0x0000000000008f28      0x1f4 ./APP/app.o
 *fill*         0x000000000000911c        0x4 
 .text.cos      0x0000000000009120       0xc0 /usr/lib/gcc/arm-none-eabi/6.2.0/../../../../arm-none-eabi/lib/armv7e-m/fpu/libm.a(lib_a-s_cos.o)
                0x0000000000009120                cos
 .text.sin      0x00000000000091e0       0xc0 /usr/lib/gcc/arm-none-eabi/6.2.0/../../../../arm-none-eabi/lib/armv7e-m/fpu/libm.a(lib_a-s_sin.o)
                0x00000000000091e0                sin
 .text.exp      0x00000000000092a0      0x100 /usr/lib/gcc/arm-none-eabi/6.2.0/../../../../arm-none-eabi/lib/armv7e-m/fpu/libm.a(lib_a-w_exp.o)
                0x00000000000092a0                exp
 .text.__ieee754_exp
                0x00000000000093a0      0x324 /usr/lib/gcc/arm-none-eabi/6.2.0/../../../../arm-none-eabi/lib/armv7e-m/fpu/libm.a(lib_a-e_exp.o)
                0x00000000000093a0                __ieee754_exp
 *fill*         0x00000000000096c4        0x4 
 .text.__ieee754_rem_pio2
                0x00000000000096c8      0x44c /usr/lib/gcc/arm-none-eabi/6.2.0/../../../../arm-none-eabi/lib/armv7e-m/fpu/libm.a(lib_a-e_rem_pio2.o)
                0x00000000000096c8                __ieee754_rem_pio2
 *fill*         0x0000000000009b14        0x4 
 .text.__kernel_cos
                0x0000000000009b18      0x284 /usr/lib/gcc/arm-none-eabi/6.2.0/../../../../arm-none-eabi/lib/armv7e-m/fpu/libm.a(lib_a-k_cos.o)
                0x0000000000009b18                __kernel_cos
 *fill*         0x0000000000009d9c        0x4 
 .text.__kernel_rem_pio2
                0x0000000000009da0      0x870 /usr/lib/gcc/arm-none-eabi/6.2.0/../../../../arm-none-eabi/lib/armv7e-m/fpu/libm.a(lib_a-k_rem_pio2.o)
                0x0000000000009da0                __kernel_rem_pio2
 .text.__kernel_sin
                0x000000000000a610      0x194 /usr/lib/gcc/arm-none-eabi/6.2.0/../../../../arm-none-eabi/lib/armv7e-m/fpu/libm.a(lib_a-k_sin.o)
                0x000000000000a610                __kernel_sin
 .text.fabs     0x000000000000a7a4       0x10 /usr/lib/gcc/arm-none-eabi/6.2.0/../../../../arm-none-eabi/lib/armv7e-m/fpu/libm.a(lib_a-s_fabs.o)
                0x000000000000a7a4                fabs
 .text.finite   0x000000000000a7b4       0x10 /usr/lib/gcc/arm-none-eabi/6.2.0/../../../../arm-none-eabi/lib/armv7e-m/fpu/libm.a(lib_a-s_finite.o)
                0x000000000000a7b4                finite
 *fill*         0x000000000000a7c4        0x4 
 .text.floor    0x000000000000a7c8      0x120 /usr/lib/gcc/arm-none-eabi/6.2.0/../../../../arm-none-eabi/lib/armv7e-m/fpu/libm.a(lib_a-s_floor.o)
                0x000000000000a7c8                floor
 .text.matherr  0x000000000000a8e8        0x4 /usr/lib/gcc/arm-none-eabi/6.2.0/../../../../arm-none-eabi/lib/armv7e-m/fpu/libm.a(lib_a-s_matherr.o)
                0x000000000000a8e8                matherr
 *fill*         0x000000000000a8ec        0x4 
 .text.scalbn   0x000000000000a8f0      0x10c /usr/lib/gcc/arm-none-eabi/6.2.0/../../../../arm-none-eabi/lib/armv7e-m/fpu/libm.a(lib_a-s_scalbn.o)
                0x000000000000a8f0                scalbn
 .text.copysign
                0x000000000000a9fc       0x1c /usr/lib/gcc/arm-none-eabi/6.2.0/../../../../arm-none-eabi/lib/armv7e-m/fpu/libm.a(lib_a-s_copysign.o)
                0x000000000000a9fc                copysign
 .text.__assert_func
                0x000000000000aa18       0x3c /usr/lib/gcc/arm-none-eabi/6.2.0/../../../../arm-none-eabi/lib/armv7e-m/fpu/libg_nano.a(lib_a-assert.o)
                0x000000000000aa18                __assert_func
 .text.atexit   0x000000000000aa54        0xc /usr/lib/gcc/arm-none-eabi/6.2.0/../../../../arm-none-eabi/lib/armv7e-m/fpu/libg_nano.a(lib_a-atexit.o)
                0x000000000000aa54                atexit
 .text.__errno  0x000000000000aa60        0xc /usr/lib/gcc/arm-none-eabi/6.2.0/../../../../arm-none-eabi/lib/armv7e-m/fpu/libg_nano.a(lib_a-errno.o)
                0x000000000000aa60                __errno
 .text.exit     0x000000000000aa6c       0x28 /usr/lib/gcc/arm-none-eabi/6.2.0/../../../../arm-none-eabi/lib/armv7e-m/fpu/libg_nano.a(lib_a-exit.o)
                0x000000000000aa6c                exit
 .text.__libc_fini_array
                0x000000000000aa94       0x28 /usr/lib/gcc/arm-none-eabi/6.2.0/../../../../arm-none-eabi/lib/armv7e-m/fpu/libg_nano.a(lib_a-fini.o)
                0x000000000000aa94                __libc_fini_array
 .text.fprintf  0x000000000000aabc       0x24 /usr/lib/gcc/arm-none-eabi/6.2.0/../../../../arm-none-eabi/lib/armv7e-m/fpu/libg_nano.a(lib_a-fprintf.o)
                0x000000000000aabc                fprintf
                0x000000000000aabc                fiprintf
 .text.__libc_init_array
                0x000000000000aae0       0x48 /usr/lib/gcc/arm-none-eabi/6.2.0/../../../../arm-none-eabi/lib/armv7e-m/fpu/libg_nano.a(lib_a-init.o)
                0x000000000000aae0                __libc_init_array
 .text.malloc   0x000000000000ab28       0x10 /usr/lib/gcc/arm-none-eabi/6.2.0/../../../../arm-none-eabi/lib/armv7e-m/fpu/libg_nano.a(lib_a-malloc.o)
                0x000000000000ab28                malloc
 .text.free     0x000000000000ab38       0x10 /usr/lib/gcc/arm-none-eabi/6.2.0/../../../../arm-none-eabi/lib/armv7e-m/fpu/libg_nano.a(lib_a-malloc.o)
                0x000000000000ab38                free
 .text.memset   0x000000000000ab48       0x10 /usr/lib/gcc/arm-none-eabi/6.2.0/../../../../arm-none-eabi/lib/armv7e-m/fpu/libg_nano.a(lib_a-memset.o)
                0x000000000000ab48                memset
 .text._free_r  0x000000000000ab58       0x88 /usr/lib/gcc/arm-none-eabi/6.2.0/../../../../arm-none-eabi/lib/armv7e-m/fpu/libg_nano.a(lib_a-nano-freer.o)
                0x000000000000ab58                _free_r
 .text._malloc_r
                0x000000000000abe0       0xa4 /usr/lib/gcc/arm-none-eabi/6.2.0/../../../../arm-none-eabi/lib/armv7e-m/fpu/libg_nano.a(lib_a-nano-mallocr.o)
                0x000000000000abe0                _malloc_r
 .text.__sfputc_r
                0x000000000000ac84       0x30 /usr/lib/gcc/arm-none-eabi/6.2.0/../../../../arm-none-eabi/lib/armv7e-m/fpu/libg_nano.a(lib_a-nano-vfprintf.o)
 .text.__sfputs_r
                0x000000000000acb4       0x24 /usr/lib/gcc/arm-none-eabi/6.2.0/../../../../arm-none-eabi/lib/armv7e-m/fpu/libg_nano.a(lib_a-nano-vfprintf.o)
                0x000000000000acb4                __sfputs_r
 .text._vfprintf_r
                0x000000000000acd8      0x22c /usr/lib/gcc/arm-none-eabi/6.2.0/../../../../arm-none-eabi/lib/armv7e-m/fpu/libg_nano.a(lib_a-nano-vfprintf.o)
                0x000000000000acd8                _vfiprintf_r
                0x000000000000acd8                _vfprintf_r
 .text._printf_common
                0x000000000000af04       0xec /usr/lib/gcc/arm-none-eabi/6.2.0/../../../../arm-none-eabi/lib/armv7e-m/fpu/libg_nano.a(lib_a-nano-vfprintf_i.o)
                0x000000000000af04                _printf_common
 .text._printf_i
                0x000000000000aff0      0x240 /usr/lib/gcc/arm-none-eabi/6.2.0/../../../../arm-none-eabi/lib/armv7e-m/fpu/libg_nano.a(lib_a-nano-vfprintf_i.o)
                0x000000000000aff0                _printf_i
 .text._sbrk_r  0x000000000000b230       0x20 /usr/lib/gcc/arm-none-eabi/6.2.0/../../../../arm-none-eabi/lib/armv7e-m/fpu/libg_nano.a(lib_a-sbrkr.o)
                0x000000000000b230                _sbrk_r
 .text._vsprintf_r
                0x000000000000b250       0x30 /usr/lib/gcc/arm-none-eabi/6.2.0/../../../../arm-none-eabi/lib/armv7e-m/fpu/libg_nano.a(lib_a-vsprintf.o)
                0x000000000000b250                _vsiprintf_r
                0x000000000000b250                _vsprintf_r
 .text.vsprintf
                0x000000000000b280       0x14 /usr/lib/gcc/arm-none-eabi/6.2.0/../../../../arm-none-eabi/lib/armv7e-m/fpu/libg_nano.a(lib_a-vsprintf.o)
                0x000000000000b280                vsprintf
                0x000000000000b280                vsiprintf
 .text.__swbuf_r
                0x000000000000b294       0xa4 /usr/lib/gcc/arm-none-eabi/6.2.0/../../../../arm-none-eabi/lib/armv7e-m/fpu/libg_nano.a(lib_a-wbuf.o)
                0x000000000000b294                __swbuf_r
 .text.__swsetup_r
                0x000000000000b338       0xdc /usr/lib/gcc/arm-none-eabi/6.2.0/../../../../arm-none-eabi/lib/armv7e-m/fpu/libg_nano.a(lib_a-wsetup.o)
                0x000000000000b338                __swsetup_r
 .text.__register_exitproc
                0x000000000000b414       0xc8 /usr/lib/gcc/arm-none-eabi/6.2.0/../../../../arm-none-eabi/lib/armv7e-m/fpu/libg_nano.a(lib_a-__atexit.o)
                0x000000000000b414                __register_exitproc
 .text.__call_exitprocs
                0x000000000000b4dc       0xdc /usr/lib/gcc/arm-none-eabi/6.2.0/../../../../arm-none-eabi/lib/armv7e-m/fpu/libg_nano.a(lib_a-__call_atexit.o)
                0x000000000000b4dc                __call_exitprocs
 .text.abort    0x000000000000b5b8        0xe /usr/lib/gcc/arm-none-eabi/6.2.0/../../../../arm-none-eabi/lib/armv7e-m/fpu/libg_nano.a(lib_a-abort.o)
                0x000000000000b5b8                abort
 *fill*         0x000000000000b5c6        0x2 
 .text.__sflush_r
                0x000000000000b5c8      0x110 /usr/lib/gcc/arm-none-eabi/6.2.0/../../../../arm-none-eabi/lib/armv7e-m/fpu/libg_nano.a(lib_a-fflush.o)
                0x000000000000b5c8                __sflush_r
 .text._fflush_r
                0x000000000000b6d8       0x54 /usr/lib/gcc/arm-none-eabi/6.2.0/../../../../arm-none-eabi/lib/armv7e-m/fpu/libg_nano.a(lib_a-fflush.o)
                0x000000000000b6d8                _fflush_r
 .text._cleanup_r
                0x000000000000b72c        0xc /usr/lib/gcc/arm-none-eabi/6.2.0/../../../../arm-none-eabi/lib/armv7e-m/fpu/libg_nano.a(lib_a-findfp.o)
                0x000000000000b72c                _cleanup_r
 .text.std.isra.0
                0x000000000000b738       0x48 /usr/lib/gcc/arm-none-eabi/6.2.0/../../../../arm-none-eabi/lib/armv7e-m/fpu/libg_nano.a(lib_a-findfp.o)
 .text.__sfmoreglue
                0x000000000000b780       0x2c /usr/lib/gcc/arm-none-eabi/6.2.0/../../../../arm-none-eabi/lib/armv7e-m/fpu/libg_nano.a(lib_a-findfp.o)
                0x000000000000b780                __sfmoreglue
 .text.__sinit  0x000000000000b7ac       0x60 /usr/lib/gcc/arm-none-eabi/6.2.0/../../../../arm-none-eabi/lib/armv7e-m/fpu/libg_nano.a(lib_a-findfp.o)
                0x000000000000b7ac                __sinit
 .text.__sfp    0x000000000000b80c       0x78 /usr/lib/gcc/arm-none-eabi/6.2.0/../../../../arm-none-eabi/lib/armv7e-m/fpu/libg_nano.a(lib_a-findfp.o)
                0x000000000000b80c                __sfp
 .text._fwalk_reent
                0x000000000000b884       0x3c /usr/lib/gcc/arm-none-eabi/6.2.0/../../../../arm-none-eabi/lib/armv7e-m/fpu/libg_nano.a(lib_a-fwalk.o)
                0x000000000000b884                _fwalk_reent
 .text.__swhatbuf_r
                0x000000000000b8c0       0x48 /usr/lib/gcc/arm-none-eabi/6.2.0/../../../../arm-none-eabi/lib/armv7e-m/fpu/libg_nano.a(lib_a-makebuf.o)
                0x000000000000b8c0                __swhatbuf_r
 .text.__smakebuf_r
                0x000000000000b908       0x78 /usr/lib/gcc/arm-none-eabi/6.2.0/../../../../arm-none-eabi/lib/armv7e-m/fpu/libg_nano.a(lib_a-makebuf.o)
                0x000000000000b908                __smakebuf_r
 .text.memcpy   0x000000000000b980       0x16 /usr/lib/gcc/arm-none-eabi/6.2.0/../../../../arm-none-eabi/lib/armv7e-m/fpu/libg_nano.a(lib_a-memcpy-stub.o)
                0x000000000000b980                memcpy
 .text.memmove  0x000000000000b996       0x34 /usr/lib/gcc/arm-none-eabi/6.2.0/../../../../arm-none-eabi/lib/armv7e-m/fpu/libg_nano.a(lib_a-memmove.o)
                0x000000000000b996                memmove
 .text._realloc_r
                0x000000000000b9ca       0x4c /usr/lib/gcc/arm-none-eabi/6.2.0/../../../../arm-none-eabi/lib/armv7e-m/fpu/libg_nano.a(lib_a-nano-reallocr.o)
                0x000000000000b9ca                _realloc_r
 .text.__ssputs_r
                0x000000000000ba16       0xb6 /usr/lib/gcc/arm-none-eabi/6.2.0/../../../../arm-none-eabi/lib/armv7e-m/fpu/libg_nano.a(lib_a-nano-svfprintf.o)
                0x000000000000ba16                __ssputs_r
 .text._svfprintf_r
                0x000000000000bacc      0x1e8 /usr/lib/gcc/arm-none-eabi/6.2.0/../../../../arm-none-eabi/lib/armv7e-m/fpu/libg_nano.a(lib_a-nano-svfprintf.o)
                0x000000000000bacc                _svfprintf_r
                0x000000000000bacc                _svfiprintf_r
 .text._raise_r
                0x000000000000bcb4       0x50 /usr/lib/gcc/arm-none-eabi/6.2.0/../../../../arm-none-eabi/lib/armv7e-m/fpu/libg_nano.a(lib_a-signal.o)
                0x000000000000bcb4                _raise_r
 .text.raise    0x000000000000bd04       0x10 /usr/lib/gcc/arm-none-eabi/6.2.0/../../../../arm-none-eabi/lib/armv7e-m/fpu/libg_nano.a(lib_a-signal.o)
                0x000000000000bd04                raise
 .text._kill_r  0x000000000000bd14       0x24 /usr/lib/gcc/arm-none-eabi/6.2.0/../../../../arm-none-eabi/lib/armv7e-m/fpu/libg_nano.a(lib_a-signalr.o)
                0x000000000000bd14                _kill_r
 .text._getpid_r
                0x000000000000bd38        0x4 /usr/lib/gcc/arm-none-eabi/6.2.0/../../../../arm-none-eabi/lib/armv7e-m/fpu/libg_nano.a(lib_a-signalr.o)
                0x000000000000bd38                _getpid_r
 .text.__sread  0x000000000000bd3c       0x22 /usr/lib/gcc/arm-none-eabi/6.2.0/../../../../arm-none-eabi/lib/armv7e-m/fpu/libg_nano.a(lib_a-stdio.o)
                0x000000000000bd3c                __sread
 .text.__swrite
                0x000000000000bd5e       0x38 /usr/lib/gcc/arm-none-eabi/6.2.0/../../../../arm-none-eabi/lib/armv7e-m/fpu/libg_nano.a(lib_a-stdio.o)
                0x000000000000bd5e                __swrite
 .text.__sseek  0x000000000000bd96       0x24 /usr/lib/gcc/arm-none-eabi/6.2.0/../../../../arm-none-eabi/lib/armv7e-m/fpu/libg_nano.a(lib_a-stdio.o)
                0x000000000000bd96                __sseek
 .text.__sclose
                0x000000000000bdba        0x8 /usr/lib/gcc/arm-none-eabi/6.2.0/../../../../arm-none-eabi/lib/armv7e-m/fpu/libg_nano.a(lib_a-stdio.o)
                0x000000000000bdba                __sclose
 *fill*         0x000000000000bdc2        0x2 
 .text._write_r
                0x000000000000bdc4       0x24 /usr/lib/gcc/arm-none-eabi/6.2.0/../../../../arm-none-eabi/lib/armv7e-m/fpu/libg_nano.a(lib_a-writer.o)
                0x000000000000bdc4                _write_r
 .text._close_r
                0x000000000000bde8       0x20 /usr/lib/gcc/arm-none-eabi/6.2.0/../../../../arm-none-eabi/lib/armv7e-m/fpu/libg_nano.a(lib_a-closer.o)
                0x000000000000bde8                _close_r
 .text._fstat_r
                0x000000000000be08       0x24 /usr/lib/gcc/arm-none-eabi/6.2.0/../../../../arm-none-eabi/lib/armv7e-m/fpu/libg_nano.a(lib_a-fstatr.o)
                0x000000000000be08                _fstat_r
 .text._isatty_r
                0x000000000000be2c       0x20 /usr/lib/gcc/arm-none-eabi/6.2.0/../../../../arm-none-eabi/lib/armv7e-m/fpu/libg_nano.a(lib_a-isattyr.o)
                0x000000000000be2c                _isatty_r
 .text._lseek_r
                0x000000000000be4c       0x24 /usr/lib/gcc/arm-none-eabi/6.2.0/../../../../arm-none-eabi/lib/armv7e-m/fpu/libg_nano.a(lib_a-lseekr.o)
                0x000000000000be4c                _lseek_r
 .text._malloc_usable_size_r
                0x000000000000be70       0x12 /usr/lib/gcc/arm-none-eabi/6.2.0/../../../../arm-none-eabi/lib/armv7e-m/fpu/libg_nano.a(lib_a-nano-msizer.o)
                0x000000000000be70                _malloc_usable_size_r
 *fill*         0x000000000000be82        0x2 
 .text._read_r  0x000000000000be84       0x24 /usr/lib/gcc/arm-none-eabi/6.2.0/../../../../arm-none-eabi/lib/armv7e-m/fpu/libg_nano.a(lib_a-readr.o)
                0x000000000000be84                _read_r
 .text._close   0x000000000000bea8       0x10 /usr/lib/gcc/arm-none-eabi/6.2.0/../../../../arm-none-eabi/lib/armv7e-m/fpu/libnosys.a(close.o)
                0x000000000000bea8                _close
 .text._fstat   0x000000000000beb8       0x10 /usr/lib/gcc/arm-none-eabi/6.2.0/../../../../arm-none-eabi/lib/armv7e-m/fpu/libnosys.a(fstat.o)
                0x000000000000beb8                _fstat
 .text._getpid  0x000000000000bec8       0x10 /usr/lib/gcc/arm-none-eabi/6.2.0/../../../../arm-none-eabi/lib/armv7e-m/fpu/libnosys.a(getpid.o)
                0x000000000000bec8                _getpid
 .text._isatty  0x000000000000bed8       0x10 /usr/lib/gcc/arm-none-eabi/6.2.0/../../../../arm-none-eabi/lib/armv7e-m/fpu/libnosys.a(isatty.o)
                0x000000000000bed8                _isatty
 .text._kill    0x000000000000bee8       0x10 /usr/lib/gcc/arm-none-eabi/6.2.0/../../../../arm-none-eabi/lib/armv7e-m/fpu/libnosys.a(kill.o)
                0x000000000000bee8                _kill
 .text._lseek   0x000000000000bef8       0x10 /usr/lib/gcc/arm-none-eabi/6.2.0/../../../../arm-none-eabi/lib/armv7e-m/fpu/libnosys.a(lseek.o)
                0x000000000000bef8                _lseek
 .text._read    0x000000000000bf08       0x10 /usr/lib/gcc/arm-none-eabi/6.2.0/../../../../arm-none-eabi/lib/armv7e-m/fpu/libnosys.a(read.o)
                0x000000000000bf08                _read
 .text._sbrk    0x000000000000bf18       0x1c /usr/lib/gcc/arm-none-eabi/6.2.0/../../../../arm-none-eabi/lib/armv7e-m/fpu/libnosys.a(sbrk.o)
                0x000000000000bf18                _sbrk
 .text._write   0x000000000000bf34       0x10 /usr/lib/gcc/arm-none-eabi/6.2.0/../../../../arm-none-eabi/lib/armv7e-m/fpu/libnosys.a(write.o)
                0x000000000000bf34                _write
 .text._exit    0x000000000000bf44        0x4 /usr/lib/gcc/arm-none-eabi/6.2.0/../../../../arm-none-eabi/lib/armv7e-m/fpu/libnosys.a(_exit.o)
                0x000000000000bf44                _exit
 *(.rodata)
 .rodata        0x000000000000bf48       0x2c ./uCOS-III/Source/os_core.o
 .rodata        0x000000000000bf74        0xc ./uCOS-III/Source/os_flag.o
 .rodata        0x000000000000bf80        0xc ./uCOS-III/Source/os_mutex.o
 .rodata        0x000000000000bf8c        0x8 ./uCOS-III/Source/os_q.o
 .rodata        0x000000000000bf94        0xc ./uCOS-III/Source/os_sem.o
 .rodata        0x000000000000bfa0       0x14 ./uCOS-III/Source/os_stat.o
 .rodata        0x000000000000bfb4        0xc ./uCOS-III/Source/os_task.o
 .rodata        0x000000000000bfc0       0x14 ./uCOS-III/Source/os_tick.o
 .rodata        0x000000000000bfd4       0x30 ./uCOS-III/Source/os_tmr.o
 .rodata        0x000000000000c004       0x40 ./uC-LIB/lib_mem.o
 .rodata        0x000000000000c044      0x108 ./KSDK/platform/system/interrupt/src/fsl_interrupt_manager.o
 .rodata        0x000000000000c14c       0x28 ./KSDK/platform/osa/src/fsl_os_abstraction_ucosiii.o
 .rodata        0x000000000000c174      0x17c ./KSDK/platform/hal/sim/fsl_sim_hal.o
 .rodata        0x000000000000c2f0       0xa4 ./KSDK/platform/hal/gpio/fsl_gpio_hal.o
 .rodata        0x000000000000c394      0x200 ./KSDK/platform/drivers/uart/src/fsl_uart_driver.o
 .rodata        0x000000000000c594      0x290 ./KSDK/platform/drivers/gpio/src/fsl_gpio_driver.o
 .rodata        0x000000000000c824       0xc4 ./KSDK/boards/frdmk64f120m/pin_mux.o
 .rodata        0x000000000000c8e8      0x1c4 ./APP/app.o
 *(.rodata*)
 .rodata.OSCfg_IdleTaskStkBasePtr
                0x000000000000caac        0x4 ./uCOS-III/Source/os_cfg_app.o
                0x000000000000caac                OSCfg_IdleTaskStkBasePtr
 .rodata.OSCfg_IdleTaskStkLimit
                0x000000000000cab0        0x4 ./uCOS-III/Source/os_cfg_app.o
                0x000000000000cab0                OSCfg_IdleTaskStkLimit
 .rodata.OSCfg_IdleTaskStkSize
                0x000000000000cab4        0x4 ./uCOS-III/Source/os_cfg_app.o
                0x000000000000cab4                OSCfg_IdleTaskStkSize
 .rodata.OSCfg_ISRStkBasePtr
                0x000000000000cab8        0x4 ./uCOS-III/Source/os_cfg_app.o
                0x000000000000cab8                OSCfg_ISRStkBasePtr
 .rodata.OSCfg_ISRStkSize
                0x000000000000cabc        0x4 ./uCOS-III/Source/os_cfg_app.o
                0x000000000000cabc                OSCfg_ISRStkSize
 .rodata.OSCfg_MsgPoolSize
                0x000000000000cac0        0x2 ./uCOS-III/Source/os_cfg_app.o
                0x000000000000cac0                OSCfg_MsgPoolSize
 *fill*         0x000000000000cac2        0x2 
 .rodata.OSCfg_MsgPoolBasePtr
                0x000000000000cac4        0x4 ./uCOS-III/Source/os_cfg_app.o
                0x000000000000cac4                OSCfg_MsgPoolBasePtr
 .rodata.OSCfg_StatTaskPrio
                0x000000000000cac8        0x1 ./uCOS-III/Source/os_cfg_app.o
                0x000000000000cac8                OSCfg_StatTaskPrio
 *fill*         0x000000000000cac9        0x3 
 .rodata.OSCfg_StatTaskRate_Hz
                0x000000000000cacc        0x4 ./uCOS-III/Source/os_cfg_app.o
                0x000000000000cacc                OSCfg_StatTaskRate_Hz
 .rodata.OSCfg_StatTaskStkBasePtr
                0x000000000000cad0        0x4 ./uCOS-III/Source/os_cfg_app.o
                0x000000000000cad0                OSCfg_StatTaskStkBasePtr
 .rodata.OSCfg_StatTaskStkLimit
                0x000000000000cad4        0x4 ./uCOS-III/Source/os_cfg_app.o
                0x000000000000cad4                OSCfg_StatTaskStkLimit
 .rodata.OSCfg_StatTaskStkSize
                0x000000000000cad8        0x4 ./uCOS-III/Source/os_cfg_app.o
                0x000000000000cad8                OSCfg_StatTaskStkSize
 .rodata.OSCfg_StkSizeMin
                0x000000000000cadc        0x4 ./uCOS-III/Source/os_cfg_app.o
                0x000000000000cadc                OSCfg_StkSizeMin
 .rodata.OSCfg_TickRate_Hz
                0x000000000000cae0        0x4 ./uCOS-III/Source/os_cfg_app.o
                0x000000000000cae0                OSCfg_TickRate_Hz
 .rodata.OSCfg_TickTaskPrio
                0x000000000000cae4        0x1 ./uCOS-III/Source/os_cfg_app.o
                0x000000000000cae4                OSCfg_TickTaskPrio
 *fill*         0x000000000000cae5        0x3 
 .rodata.OSCfg_TickTaskStkBasePtr
                0x000000000000cae8        0x4 ./uCOS-III/Source/os_cfg_app.o
                0x000000000000cae8                OSCfg_TickTaskStkBasePtr
 .rodata.OSCfg_TickTaskStkLimit
                0x000000000000caec        0x4 ./uCOS-III/Source/os_cfg_app.o
                0x000000000000caec                OSCfg_TickTaskStkLimit
 .rodata.OSCfg_TickTaskStkSize
                0x000000000000caf0        0x4 ./uCOS-III/Source/os_cfg_app.o
                0x000000000000caf0                OSCfg_TickTaskStkSize
 .rodata.OSCfg_TmrTaskPrio
                0x000000000000caf4        0x1 ./uCOS-III/Source/os_cfg_app.o
                0x000000000000caf4                OSCfg_TmrTaskPrio
 *fill*         0x000000000000caf5        0x3 
 .rodata.OSCfg_TmrTaskRate_Hz
                0x000000000000caf8        0x4 ./uCOS-III/Source/os_cfg_app.o
                0x000000000000caf8                OSCfg_TmrTaskRate_Hz
 .rodata.OSCfg_TmrTaskStkBasePtr
                0x000000000000cafc        0x4 ./uCOS-III/Source/os_cfg_app.o
                0x000000000000cafc                OSCfg_TmrTaskStkBasePtr
 .rodata.OSCfg_TmrTaskStkLimit
                0x000000000000cb00        0x4 ./uCOS-III/Source/os_cfg_app.o
                0x000000000000cb00                OSCfg_TmrTaskStkLimit
 .rodata.OSCfg_TmrTaskStkSize
                0x000000000000cb04        0x4 ./uCOS-III/Source/os_cfg_app.o
                0x000000000000cb04                OSCfg_TmrTaskStkSize
 .rodata.OSDbg_DbgEn
                0x000000000000cb08        0x1 ./uCOS-III/Source/os_dbg.o
                0x000000000000cb08                OSDbg_DbgEn
 .rodata.OSDbg_ArgChkEn
                0x000000000000cb09        0x1 ./uCOS-III/Source/os_dbg.o
                0x000000000000cb09                OSDbg_ArgChkEn
 .rodata.OSDbg_AppHooksEn
                0x000000000000cb0a        0x1 ./uCOS-III/Source/os_dbg.o
                0x000000000000cb0a                OSDbg_AppHooksEn
 *fill*         0x000000000000cb0b        0x1 
 .rodata.OSDbg_EndiannessTest
                0x000000000000cb0c        0x4 ./uCOS-III/Source/os_dbg.o
                0x000000000000cb0c                OSDbg_EndiannessTest
 .rodata.OSDbg_CalledFromISRChkEn
                0x000000000000cb10        0x1 ./uCOS-III/Source/os_dbg.o
                0x000000000000cb10                OSDbg_CalledFromISRChkEn
 .rodata.OSDbg_FlagEn
                0x000000000000cb11        0x1 ./uCOS-III/Source/os_dbg.o
                0x000000000000cb11                OSDbg_FlagEn
 *fill*         0x000000000000cb12        0x2 
 .rodata.OSDbg_FlagGrp
                0x000000000000cb14       0x28 ./uCOS-III/Source/os_dbg.o
                0x000000000000cb14                OSDbg_FlagGrp
 .rodata.OSDbg_FlagDelEn
                0x000000000000cb3c        0x1 ./uCOS-III/Source/os_dbg.o
                0x000000000000cb3c                OSDbg_FlagDelEn
 .rodata.OSDbg_FlagModeClrEn
                0x000000000000cb3d        0x1 ./uCOS-III/Source/os_dbg.o
                0x000000000000cb3d                OSDbg_FlagModeClrEn
 .rodata.OSDbg_FlagPendAbortEn
                0x000000000000cb3e        0x1 ./uCOS-III/Source/os_dbg.o
                0x000000000000cb3e                OSDbg_FlagPendAbortEn
 *fill*         0x000000000000cb3f        0x1 
 .rodata.OSDbg_FlagGrpSize
                0x000000000000cb40        0x2 ./uCOS-III/Source/os_dbg.o
                0x000000000000cb40                OSDbg_FlagGrpSize
 .rodata.OSDbg_FlagWidth
                0x000000000000cb42        0x2 ./uCOS-III/Source/os_dbg.o
                0x000000000000cb42                OSDbg_FlagWidth
 .rodata.OSDbg_ISRPostDeferredEn
                0x000000000000cb44        0x1 ./uCOS-III/Source/os_dbg.o
                0x000000000000cb44                OSDbg_ISRPostDeferredEn
 *fill*         0x000000000000cb45        0x3 
 .rodata.OSDbg_Mem
                0x000000000000cb48       0x20 ./uCOS-III/Source/os_dbg.o
                0x000000000000cb48                OSDbg_Mem
 .rodata.OSDbg_MemEn
                0x000000000000cb68        0x1 ./uCOS-III/Source/os_dbg.o
                0x000000000000cb68                OSDbg_MemEn
 *fill*         0x000000000000cb69        0x1 
 .rodata.OSDbg_MemSize
                0x000000000000cb6a        0x2 ./uCOS-III/Source/os_dbg.o
                0x000000000000cb6a                OSDbg_MemSize
 .rodata.OSDbg_MsgEn
                0x000000000000cb6c        0x1 ./uCOS-III/Source/os_dbg.o
                0x000000000000cb6c                OSDbg_MsgEn
 *fill*         0x000000000000cb6d        0x1 
 .rodata.OSDbg_MsgSize
                0x000000000000cb6e        0x2 ./uCOS-III/Source/os_dbg.o
                0x000000000000cb6e                OSDbg_MsgSize
 .rodata.OSDbg_MsgPoolSize
                0x000000000000cb70        0x2 ./uCOS-III/Source/os_dbg.o
                0x000000000000cb70                OSDbg_MsgPoolSize
 .rodata.OSDbg_MsgQSize
                0x000000000000cb72        0x2 ./uCOS-III/Source/os_dbg.o
                0x000000000000cb72                OSDbg_MsgQSize
 .rodata.OSDbg_Mutex
                0x000000000000cb74       0x30 ./uCOS-III/Source/os_dbg.o
                0x000000000000cb74                OSDbg_Mutex
 .rodata.OSDbg_MutexEn
                0x000000000000cba4        0x1 ./uCOS-III/Source/os_dbg.o
                0x000000000000cba4                OSDbg_MutexEn
 .rodata.OSDbg_MutexDelEn
                0x000000000000cba5        0x1 ./uCOS-III/Source/os_dbg.o
                0x000000000000cba5                OSDbg_MutexDelEn
 .rodata.OSDbg_MutexPendAbortEn
                0x000000000000cba6        0x1 ./uCOS-III/Source/os_dbg.o
                0x000000000000cba6                OSDbg_MutexPendAbortEn
 *fill*         0x000000000000cba7        0x1 
 .rodata.OSDbg_MutexSize
                0x000000000000cba8        0x2 ./uCOS-III/Source/os_dbg.o
                0x000000000000cba8                OSDbg_MutexSize
 .rodata.OSDbg_ObjTypeChkEn
                0x000000000000cbaa        0x1 ./uCOS-III/Source/os_dbg.o
                0x000000000000cbaa                OSDbg_ObjTypeChkEn
 .rodata.OSDbg_PendMultiEn
                0x000000000000cbab        0x1 ./uCOS-III/Source/os_dbg.o
                0x000000000000cbab                OSDbg_PendMultiEn
 .rodata.OSDbg_PendDataSize
                0x000000000000cbac        0x2 ./uCOS-III/Source/os_dbg.o
                0x000000000000cbac                OSDbg_PendDataSize
 .rodata.OSDbg_PendListSize
                0x000000000000cbae        0x2 ./uCOS-III/Source/os_dbg.o
                0x000000000000cbae                OSDbg_PendListSize
 .rodata.OSDbg_PendObjSize
                0x000000000000cbb0        0x2 ./uCOS-III/Source/os_dbg.o
                0x000000000000cbb0                OSDbg_PendObjSize
 .rodata.OSDbg_PrioMax
                0x000000000000cbb2        0x2 ./uCOS-III/Source/os_dbg.o
                0x000000000000cbb2                OSDbg_PrioMax
 .rodata.OSDbg_PrioTblSize
                0x000000000000cbb4        0x2 ./uCOS-III/Source/os_dbg.o
                0x000000000000cbb4                OSDbg_PrioTblSize
 .rodata.OSDbg_PtrSize
                0x000000000000cbb6        0x2 ./uCOS-III/Source/os_dbg.o
                0x000000000000cbb6                OSDbg_PtrSize
 .rodata.OSDbg_Q
                0x000000000000cbb8       0x30 ./uCOS-III/Source/os_dbg.o
                0x000000000000cbb8                OSDbg_Q
 .rodata.OSDbg_QEn
                0x000000000000cbe8        0x1 ./uCOS-III/Source/os_dbg.o
                0x000000000000cbe8                OSDbg_QEn
 .rodata.OSDbg_QDelEn
                0x000000000000cbe9        0x1 ./uCOS-III/Source/os_dbg.o
                0x000000000000cbe9                OSDbg_QDelEn
 .rodata.OSDbg_QFlushEn
                0x000000000000cbea        0x1 ./uCOS-III/Source/os_dbg.o
                0x000000000000cbea                OSDbg_QFlushEn
 .rodata.OSDbg_QPendAbortEn
                0x000000000000cbeb        0x1 ./uCOS-III/Source/os_dbg.o
                0x000000000000cbeb                OSDbg_QPendAbortEn
 .rodata.OSDbg_QSize
                0x000000000000cbec        0x2 ./uCOS-III/Source/os_dbg.o
                0x000000000000cbec                OSDbg_QSize
 .rodata.OSDbg_SchedRoundRobinEn
                0x000000000000cbee        0x1 ./uCOS-III/Source/os_dbg.o
                0x000000000000cbee                OSDbg_SchedRoundRobinEn
 *fill*         0x000000000000cbef        0x1 
 .rodata.OSDbg_Sem
                0x000000000000cbf0       0x28 ./uCOS-III/Source/os_dbg.o
                0x000000000000cbf0                OSDbg_Sem
 .rodata.OSDbg_SemEn
                0x000000000000cc18        0x1 ./uCOS-III/Source/os_dbg.o
                0x000000000000cc18                OSDbg_SemEn
 .rodata.OSDbg_SemDelEn
                0x000000000000cc19        0x1 ./uCOS-III/Source/os_dbg.o
                0x000000000000cc19                OSDbg_SemDelEn
 .rodata.OSDbg_SemPendAbortEn
                0x000000000000cc1a        0x1 ./uCOS-III/Source/os_dbg.o
                0x000000000000cc1a                OSDbg_SemPendAbortEn
 .rodata.OSDbg_SemSetEn
                0x000000000000cc1b        0x1 ./uCOS-III/Source/os_dbg.o
                0x000000000000cc1b                OSDbg_SemSetEn
 .rodata.OSDbg_SemSize
                0x000000000000cc1c        0x2 ./uCOS-III/Source/os_dbg.o
                0x000000000000cc1c                OSDbg_SemSize
 .rodata.OSDbg_RdyList
                0x000000000000cc1e        0x2 ./uCOS-III/Source/os_dbg.o
                0x000000000000cc1e                OSDbg_RdyList
 .rodata.OSDbg_RdyListSize
                0x000000000000cc20        0x4 ./uCOS-III/Source/os_dbg.o
                0x000000000000cc20                OSDbg_RdyListSize
 .rodata.OSDbg_StkWidth
                0x000000000000cc24        0x1 ./uCOS-III/Source/os_dbg.o
                0x000000000000cc24                OSDbg_StkWidth
 .rodata.OSDbg_StatTaskEn
                0x000000000000cc25        0x1 ./uCOS-III/Source/os_dbg.o
                0x000000000000cc25                OSDbg_StatTaskEn
 .rodata.OSDbg_StatTaskStkChkEn
                0x000000000000cc26        0x1 ./uCOS-III/Source/os_dbg.o
                0x000000000000cc26                OSDbg_StatTaskStkChkEn
 .rodata.OSDbg_TaskChangePrioEn
                0x000000000000cc27        0x1 ./uCOS-III/Source/os_dbg.o
                0x000000000000cc27                OSDbg_TaskChangePrioEn
 .rodata.OSDbg_TaskDelEn
                0x000000000000cc28        0x1 ./uCOS-III/Source/os_dbg.o
                0x000000000000cc28                OSDbg_TaskDelEn
 .rodata.OSDbg_TaskQEn
                0x000000000000cc29        0x1 ./uCOS-III/Source/os_dbg.o
                0x000000000000cc29                OSDbg_TaskQEn
 .rodata.OSDbg_TaskQPendAbortEn
                0x000000000000cc2a        0x1 ./uCOS-III/Source/os_dbg.o
                0x000000000000cc2a                OSDbg_TaskQPendAbortEn
 .rodata.OSDbg_TaskProfileEn
                0x000000000000cc2b        0x1 ./uCOS-III/Source/os_dbg.o
                0x000000000000cc2b                OSDbg_TaskProfileEn
 .rodata.OSDbg_TaskRegTblSize
                0x000000000000cc2c        0x2 ./uCOS-III/Source/os_dbg.o
                0x000000000000cc2c                OSDbg_TaskRegTblSize
 .rodata.OSDbg_TaskSemPendAbortEn
                0x000000000000cc2e        0x1 ./uCOS-III/Source/os_dbg.o
                0x000000000000cc2e                OSDbg_TaskSemPendAbortEn
 .rodata.OSDbg_TaskSuspendEn
                0x000000000000cc2f        0x1 ./uCOS-III/Source/os_dbg.o
                0x000000000000cc2f                OSDbg_TaskSuspendEn
 .rodata.OSDbg_TCBSize
                0x000000000000cc30        0x2 ./uCOS-III/Source/os_dbg.o
                0x000000000000cc30                OSDbg_TCBSize
 .rodata.OSDbg_TickListSize
                0x000000000000cc32        0x2 ./uCOS-III/Source/os_dbg.o
                0x000000000000cc32                OSDbg_TickListSize
 .rodata.OSDbg_TimeDlyHMSMEn
                0x000000000000cc34        0x1 ./uCOS-III/Source/os_dbg.o
                0x000000000000cc34                OSDbg_TimeDlyHMSMEn
 .rodata.OSDbg_TimeDlyResumeEn
                0x000000000000cc35        0x1 ./uCOS-III/Source/os_dbg.o
                0x000000000000cc35                OSDbg_TimeDlyResumeEn
 *fill*         0x000000000000cc36        0x2 
 .rodata.OSDbg_Tmr
                0x000000000000cc38       0x30 ./uCOS-III/Source/os_dbg.o
                0x000000000000cc38                OSDbg_Tmr
 .rodata.OSDbg_TmrEn
                0x000000000000cc68        0x1 ./uCOS-III/Source/os_dbg.o
                0x000000000000cc68                OSDbg_TmrEn
 .rodata.OSDbg_TmrDelEn
                0x000000000000cc69        0x1 ./uCOS-III/Source/os_dbg.o
                0x000000000000cc69                OSDbg_TmrDelEn
 .rodata.OSDbg_TmrSize
                0x000000000000cc6a        0x2 ./uCOS-III/Source/os_dbg.o
                0x000000000000cc6a                OSDbg_TmrSize
 .rodata.OSDbg_VersionNbr
                0x000000000000cc6c        0x2 ./uCOS-III/Source/os_dbg.o
                0x000000000000cc6c                OSDbg_VersionNbr
 *fill*         0x000000000000cc6e        0x2 
 .rodata.OSDbg_DataSize
                0x000000000000cc70        0x4 ./uCOS-III/Source/os_dbg.o
                0x000000000000cc70                OSDbg_DataSize
 .rodata.__func__.14565
                0x000000000000cc74       0x18 ./KSDK/platform/system/interrupt/src/fsl_interrupt_manager.o
 .rodata.g_simBaseAddr
                0x000000000000cc8c        0x4 ./KSDK/platform/system/clock/fsl_clock_manager.o
                0x000000000000cc8c                g_simBaseAddr
 .rodata.kClockNameConfigTable
                0x000000000000cc90       0x14 ./KSDK/platform/hal/sim/MK64F12/fsl_sim_hal_K64F12.o
                0x000000000000cc90                kClockNameConfigTable
 .rodata.__func__.15268
                0x000000000000cca4       0x18 ./KSDK/platform/hal/sim/fsl_sim_hal.o
 .rodata.__func__.14597
                0x000000000000ccbc       0x14 ./KSDK/platform/hal/gpio/fsl_gpio_hal.o
 .rodata.__func__.14603
                0x000000000000ccd0       0x18 ./KSDK/platform/hal/gpio/fsl_gpio_hal.o
 .rodata.__func__.18105
                0x000000000000cce8       0x10 ./KSDK/platform/drivers/uart/src/fsl_uart_driver.o
 .rodata.__func__.18091
                0x000000000000ccf8       0x14 ./KSDK/platform/drivers/uart/src/fsl_uart_driver.o
 .rodata.__func__.18125
                0x000000000000cd0c       0x1c ./KSDK/platform/drivers/uart/src/fsl_uart_driver.o
 .rodata.__func__.18131
                0x000000000000cd28       0x1c ./KSDK/platform/drivers/uart/src/fsl_uart_driver.o
 .rodata.__func__.18139
                0x000000000000cd44       0x18 ./KSDK/platform/drivers/uart/src/fsl_uart_driver.o
 .rodata.__func__.18149
                0x000000000000cd5c       0x20 ./KSDK/platform/drivers/uart/src/fsl_uart_driver.o
 .rodata.__func__.18166
                0x000000000000cd7c       0x1c ./KSDK/platform/drivers/uart/src/fsl_uart_driver.o
 .rodata.__func__.18193
                0x000000000000cd98       0x1c ./KSDK/platform/drivers/uart/src/fsl_uart_driver.o
 .rodata.g_uartBaseAddr
                0x000000000000cdb4       0x18 ./KSDK/platform/drivers/uart/common/fsl_uart_common.o
                0x000000000000cdb4                g_uartBaseAddr
 .rodata.__func__.14581
                0x000000000000cdcc       0x14 ./KSDK/platform/drivers/gpio/src/fsl_gpio_driver.o
 .rodata.__func__.14575
                0x000000000000cde0       0x18 ./KSDK/platform/drivers/gpio/src/fsl_gpio_driver.o
 .rodata.__func__.14593
                0x000000000000cdf8       0x20 ./KSDK/platform/drivers/gpio/src/fsl_gpio_driver.o
 .rodata.__func__.14623
                0x000000000000ce18       0x20 ./KSDK/platform/drivers/gpio/src/fsl_gpio_driver.o
 .rodata.__func__.14645
                0x000000000000ce38       0x18 ./KSDK/platform/drivers/gpio/src/fsl_gpio_driver.o
 .rodata.__func__.16274
                0x000000000000ce50       0x14 ./KSDK/platform/drivers/gpio/src/fsl_gpio_driver.o
 .rodata.__func__.14587
                0x000000000000ce64       0x1c ./KSDK/platform/drivers/gpio/src/fsl_gpio_driver.o
 .rodata.__func__.14605
                0x000000000000ce80       0x20 ./KSDK/platform/drivers/gpio/src/fsl_gpio_driver.o
 .rodata.__func__.14599
                0x000000000000cea0       0x1c ./KSDK/platform/drivers/gpio/src/fsl_gpio_driver.o
 .rodata.__func__.14719
                0x000000000000cebc       0x1c ./KSDK/platform/drivers/gpio/src/fsl_gpio_driver.o
 .rodata.g_gpioBaseAddr
                0x000000000000ced8       0x14 ./KSDK/platform/drivers/gpio/common/fsl_gpio_common.o
                0x000000000000ced8                g_gpioBaseAddr
 .rodata.g_portBaseAddr
                0x000000000000ceec       0x14 ./KSDK/platform/drivers/gpio/common/fsl_gpio_common.o
                0x000000000000ceec                g_portBaseAddr
 .rodata.g_portIrqId
                0x000000000000cf00        0x8 ./KSDK/platform/drivers/gpio/common/fsl_gpio_common.o
                0x000000000000cf00                g_portIrqId
 .rodata.ledPins
                0x000000000000cf08       0x30 ./KSDK/boards/frdmk64f120m/gpio_pins.o
                0x000000000000cf08                ledPins
 .rodata.__func__.14611
                0x000000000000cf38       0x14 ./KSDK/boards/frdmk64f120m/pin_mux.o
 .rodata.__func__.14599
                0x000000000000cf4c       0x1c ./KSDK/boards/frdmk64f120m/pin_mux.o
 .rodata.__func__.14575
                0x000000000000cf68       0x18 ./KSDK/boards/frdmk64f120m/pin_mux.o
 .rodata.__func__.14581
                0x000000000000cf80       0x14 ./KSDK/boards/frdmk64f120m/pin_mux.o
 .rodata.__func__.14593
                0x000000000000cf94       0x20 ./KSDK/boards/frdmk64f120m/pin_mux.o
 .rodata.__func__.14605
                0x000000000000cfb4       0x20 ./KSDK/boards/frdmk64f120m/pin_mux.o
 .rodata.__func__.14587
                0x000000000000cfd4       0x1c ./KSDK/boards/frdmk64f120m/pin_mux.o
 .rodata.exp.str1.4
                0x000000000000cff0        0x4 /usr/lib/gcc/arm-none-eabi/6.2.0/../../../../arm-none-eabi/lib/armv7e-m/fpu/libm.a(lib_a-w_exp.o)
 *fill*         0x000000000000cff4        0x4 
 .rodata.halF   0x000000000000cff8       0x10 /usr/lib/gcc/arm-none-eabi/6.2.0/../../../../arm-none-eabi/lib/armv7e-m/fpu/libm.a(lib_a-e_exp.o)
 .rodata.ln2HI  0x000000000000d008       0x10 /usr/lib/gcc/arm-none-eabi/6.2.0/../../../../arm-none-eabi/lib/armv7e-m/fpu/libm.a(lib_a-e_exp.o)
 .rodata.ln2LO  0x000000000000d018       0x10 /usr/lib/gcc/arm-none-eabi/6.2.0/../../../../arm-none-eabi/lib/armv7e-m/fpu/libm.a(lib_a-e_exp.o)
 .rodata.npio2_hw
                0x000000000000d028       0x80 /usr/lib/gcc/arm-none-eabi/6.2.0/../../../../arm-none-eabi/lib/armv7e-m/fpu/libm.a(lib_a-e_rem_pio2.o)
 .rodata.two_over_pi
                0x000000000000d0a8      0x108 /usr/lib/gcc/arm-none-eabi/6.2.0/../../../../arm-none-eabi/lib/armv7e-m/fpu/libm.a(lib_a-e_rem_pio2.o)
 .rodata.PIo2   0x000000000000d1b0       0x40 /usr/lib/gcc/arm-none-eabi/6.2.0/../../../../arm-none-eabi/lib/armv7e-m/fpu/libm.a(lib_a-k_rem_pio2.o)
 .rodata.init_jk
                0x000000000000d1f0       0x10 /usr/lib/gcc/arm-none-eabi/6.2.0/../../../../arm-none-eabi/lib/armv7e-m/fpu/libm.a(lib_a-k_rem_pio2.o)
 .rodata.__assert_func.str1.1
                0x000000000000d200       0x3c /usr/lib/gcc/arm-none-eabi/6.2.0/../../../../arm-none-eabi/lib/armv7e-m/fpu/libg_nano.a(lib_a-assert.o)
                                         0x3d (size before relaxing)
 .rodata._global_impure_ptr
                0x000000000000d23c        0x4 /usr/lib/gcc/arm-none-eabi/6.2.0/../../../../arm-none-eabi/lib/armv7e-m/fpu/libg_nano.a(lib_a-impure.o)
                0x000000000000d23c                _global_impure_ptr
 .rodata.str1.1
                0x000000000000d240        0x2 /usr/lib/gcc/arm-none-eabi/6.2.0/../../../../arm-none-eabi/lib/armv7e-m/fpu/libg_nano.a(lib_a-impure.o)
 .rodata._vfprintf_r.str1.1
                0x000000000000d242       0x11 /usr/lib/gcc/arm-none-eabi/6.2.0/../../../../arm-none-eabi/lib/armv7e-m/fpu/libg_nano.a(lib_a-nano-vfprintf.o)
 .rodata._printf_i.str1.1
                0x000000000000d253       0x22 /usr/lib/gcc/arm-none-eabi/6.2.0/../../../../arm-none-eabi/lib/armv7e-m/fpu/libg_nano.a(lib_a-nano-vfprintf_i.o)
 *fill*         0x000000000000d275        0x3 
 .rodata.__sf_fake_stderr
                0x000000000000d278       0x20 /usr/lib/gcc/arm-none-eabi/6.2.0/../../../../arm-none-eabi/lib/armv7e-m/fpu/libg_nano.a(lib_a-findfp.o)
                0x000000000000d278                __sf_fake_stderr
 .rodata.__sf_fake_stdin
                0x000000000000d298       0x20 /usr/lib/gcc/arm-none-eabi/6.2.0/../../../../arm-none-eabi/lib/armv7e-m/fpu/libg_nano.a(lib_a-findfp.o)
                0x000000000000d298                __sf_fake_stdin
 .rodata.__sf_fake_stdout
                0x000000000000d2b8       0x20 /usr/lib/gcc/arm-none-eabi/6.2.0/../../../../arm-none-eabi/lib/armv7e-m/fpu/libg_nano.a(lib_a-findfp.o)
                0x000000000000d2b8                __sf_fake_stdout
 .rodata._svfprintf_r.str1.1
                0x000000000000d2d8       0x11 /usr/lib/gcc/arm-none-eabi/6.2.0/../../../../arm-none-eabi/lib/armv7e-m/fpu/libg_nano.a(lib_a-nano-svfprintf.o)
 *(.glue_7)
 .glue_7        0x000000000000d2d8        0x0 linker stubs
 *(.glue_7t)
 .glue_7t       0x000000000000d2d8        0x0 linker stubs
 *(.eh_frame)
 .eh_frame      0x000000000000d2d8        0x0 /usr/lib/gcc/arm-none-eabi/6.2.0/armv7e-m/fpu/crtbegin.o
 *(.init)
 .init          0x000000000000d2d8        0x4 /usr/lib/gcc/arm-none-eabi/6.2.0/armv7e-m/fpu/crti.o
                0x000000000000d2d8                _init
 .init          0x000000000000d2dc        0x8 /usr/lib/gcc/arm-none-eabi/6.2.0/armv7e-m/fpu/crtn.o
 *(.fini)
 .fini          0x000000000000d2e4        0x4 /usr/lib/gcc/arm-none-eabi/6.2.0/armv7e-m/fpu/crti.o
                0x000000000000d2e4                _fini
 .fini          0x000000000000d2e8        0x8 /usr/lib/gcc/arm-none-eabi/6.2.0/armv7e-m/fpu/crtn.o
                0x000000000000d2f0                . = ALIGN (0x4)

.vfp11_veneer   0x000000000000d2f0        0x0
 .vfp11_veneer  0x000000000000d2f0        0x0 linker stubs

.v4_bx          0x000000000000d2f0        0x0
 .v4_bx         0x000000000000d2f0        0x0 linker stubs

.iplt           0x000000000000d2f0        0x0
 .iplt          0x000000000000d2f0        0x0 /usr/lib/gcc/arm-none-eabi/6.2.0/armv7e-m/fpu/crtbegin.o

.ARM.extab
 *(.ARM.extab* .gnu.linkonce.armextab.*)

.ARM            0x000000000000d2f0        0x8
                0x000000000000d2f0                __exidx_start = .
 *(.ARM.exidx*)
 .ARM.exidx     0x000000000000d2f0        0x8 /usr/lib/gcc/arm-none-eabi/6.2.0/../../../../arm-none-eabi/lib/armv7e-m/fpu/crt0.o
                0x000000000000d2f8                __exidx_end = .

.rel.dyn        0x000000000000d2f8        0x0
 .rel.iplt      0x000000000000d2f8        0x0 /usr/lib/gcc/arm-none-eabi/6.2.0/armv7e-m/fpu/crtbegin.o

.ctors          0x000000000000d2f8        0x0
                0x000000000000d2f8                __CTOR_LIST__ = .
 *crtbegin.o(.ctors)
 *crtbegin?.o(.ctors)
 *(EXCLUDE_FILE(*crtend.o *crtend?.o) .ctors)
 *(SORT(.ctors.*))
 *(.ctors)
                0x000000000000d2f8                __CTOR_END__ = .

.dtors          0x000000000000d2f8        0x0
                0x000000000000d2f8                __DTOR_LIST__ = .
 *crtbegin.o(.dtors)
 *crtbegin?.o(.dtors)
 *(EXCLUDE_FILE(*crtend.o *crtend?.o) .dtors)
 *(SORT(.dtors.*))
 *(.dtors)
                0x000000000000d2f8                __DTOR_END__ = .

.preinit_array  0x000000000000d2f8        0x0
                0x000000000000d2f8                PROVIDE (__preinit_array_start, .)
 *(.preinit_array*)
                0x000000000000d2f8                PROVIDE (__preinit_array_end, .)

.init_array     0x000000000000d2f8        0x4
                0x000000000000d2f8                PROVIDE (__init_array_start, .)
 *(SORT(.init_array.*))
 *(.init_array*)
 .init_array    0x000000000000d2f8        0x4 /usr/lib/gcc/arm-none-eabi/6.2.0/armv7e-m/fpu/crtbegin.o
                0x000000000000d2fc                PROVIDE (__init_array_end, .)

.fini_array     0x000000000000d2fc        0x4
                0x000000000000d2fc                PROVIDE (__fini_array_start, .)
 *(SORT(.fini_array.*))
 *(.fini_array*)
 .fini_array    0x000000000000d2fc        0x4 /usr/lib/gcc/arm-none-eabi/6.2.0/armv7e-m/fpu/crtbegin.o
                0x000000000000d300                PROVIDE (__fini_array_end, .)
                0x000000000000d300                __etext = .
                0x000000000000d300                __DATA_ROM = .

.data           0x0000000020000000       0x78 load address 0x000000000000d300
                0x0000000020000000                . = ALIGN (0x4)
                0x0000000020000000                __DATA_RAM = .
                0x0000000020000000                __data_start__ = .
 *(.data)
 *(.data*)
 .data.SystemCoreClock
                0x0000000020000000        0x4 ./KSDK/platform/startup/MK64F12/system_MK64F12.o
                0x0000000020000000                SystemCoreClock
 .data.g_uartRxTxIrqId
                0x0000000020000004        0x8 ./KSDK/platform/drivers/uart/common/fsl_uart_common.o
                0x0000000020000004                g_uartRxTxIrqId
 .data.__fdlib_version
                0x000000002000000c        0x1 /usr/lib/gcc/arm-none-eabi/6.2.0/../../../../arm-none-eabi/lib/armv7e-m/fpu/libm.a(lib_a-s_lib_ver.o)
                0x000000002000000c                __fdlib_version
 *fill*         0x000000002000000d        0x3 
 .data._impure_ptr
                0x0000000020000010        0x4 /usr/lib/gcc/arm-none-eabi/6.2.0/../../../../arm-none-eabi/lib/armv7e-m/fpu/libg_nano.a(lib_a-impure.o)
                0x0000000020000010                _impure_ptr
 .data.impure_data
                0x0000000020000014       0x60 /usr/lib/gcc/arm-none-eabi/6.2.0/../../../../arm-none-eabi/lib/armv7e-m/fpu/libg_nano.a(lib_a-impure.o)
 *(.jcr*)
 .jcr           0x0000000020000074        0x0 /usr/lib/gcc/arm-none-eabi/6.2.0/armv7e-m/fpu/crtbegin.o
 .jcr           0x0000000020000074        0x4 /usr/lib/gcc/arm-none-eabi/6.2.0/armv7e-m/fpu/crtend.o
                0x0000000020000078                . = ALIGN (0x4)
                0x0000000020000078                __data_end__ = .
                0x000000000000d378                __DATA_END = (__DATA_ROM + (__data_end__ - __data_start__))
                0x000000000000d378                __m_interrupts_ram_ROMStart = (__DATA_ROM + SIZEOF (.data))

.igot.plt       0x0000000020000078        0x0 load address 0x000000000000d378
 .igot.plt      0x0000000020000078        0x0 /usr/lib/gcc/arm-none-eabi/6.2.0/armv7e-m/fpu/crtbegin.o

.m_interrupts_ram
                0x000000001fff0000        0x0 load address 0x000000000000d378
                0x000000001fff0000                . = ALIGN (0x4)
                0x000000001fff0000                __m_interrupts_ram_RAMStart = .
 *(.m_interrupts_ram)
                0x000000001fff0000                __m_interrupts_ram_RAMEnd = .
                0x000000001fff0000                . = ALIGN (0x4)
                0x0000000000000000                __m_interrupts_ram_ROMSize = (__m_interrupts_ram_RAMEnd - __m_interrupts_ram_RAMStart)

.bss            0x0000000020000078     0x4024 load address 0x000000000000d378
                0x0000000020000078                . = ALIGN (0x4)
                0x0000000020000078                __START_BSS = .
                0x0000000020000078                __bss_start__ = .
 *(.bss)
 *(.bss*)
 .bss.completed.9630
                0x0000000020000078        0x1 /usr/lib/gcc/arm-none-eabi/6.2.0/armv7e-m/fpu/crtbegin.o
 *fill*         0x0000000020000079        0x3 
 .bss.object.9635
                0x000000002000007c       0x18 /usr/lib/gcc/arm-none-eabi/6.2.0/armv7e-m/fpu/crtbegin.o
 .bss.g_interruptDisableCount
                0x0000000020000094        0x4 ./KSDK/platform/system/interrupt/src/fsl_interrupt_manager.o
                0x0000000020000094                g_interruptDisableCount
 .bss.g_uartStatePtr
                0x0000000020000098       0x18 ./KSDK/platform/drivers/uart/common/fsl_uart_common.o
                0x0000000020000098                g_uartStatePtr
 .bss.BSP_UartState
                0x00000000200000b0       0x70 ./BSP/bsp_ser.o
 .bss.BSP_SerLock
                0x0000000020000120       0x28 ./BSP/bsp_ser.o
 .bss.AppTaskStartTCB
                0x0000000020000148       0xc4 ./APP/app.o
 .bss.AppTaskStartStk
                0x000000002000020c      0x800 ./APP/app.o
 .bss.App_TaskObj0TCB
                0x0000000020000a0c       0xc4 ./APP/app.o
 .bss.App_TaskObj0Stk
                0x0000000020000ad0      0x400 ./APP/app.o
 .bss.App_TaskObj1TCB
                0x0000000020000ed0       0xc4 ./APP/app.o
 .bss.App_TaskObj1Stk
                0x0000000020000f94      0x400 ./APP/app.o
 .bss.App_TaskEq0FpTCB
                0x0000000020001394       0xc4 ./APP/app.o
 .bss.App_TaskEq0FpStk
                0x0000000020001458      0x800 ./APP/app.o
 .bss.App_TaskEq1FpTCB
                0x0000000020001c58       0xc4 ./APP/app.o
 .bss.App_TaskEq1FpStk
                0x0000000020001d1c      0x800 ./APP/app.o
 .bss.App_TraceSem
                0x000000002000251c       0x28 ./APP/app.o
 .bss.App_TaskObjSem
                0x0000000020002544       0x28 ./APP/app.o
 .bss.App_TaskObjMutex
                0x000000002000256c       0x30 ./APP/app.o
 .bss.App_TaskObjQ
                0x000000002000259c       0x30 ./APP/app.o
 .bss.App_TaskObjFlag
                0x00000000200025cc       0x28 ./APP/app.o
 .bss.__malloc_free_list
                0x00000000200025f4        0x4 /usr/lib/gcc/arm-none-eabi/6.2.0/../../../../arm-none-eabi/lib/armv7e-m/fpu/libg_nano.a(lib_a-nano-mallocr.o)
                0x00000000200025f4                __malloc_free_list
 .bss.__malloc_sbrk_start
                0x00000000200025f8        0x4 /usr/lib/gcc/arm-none-eabi/6.2.0/../../../../arm-none-eabi/lib/armv7e-m/fpu/libg_nano.a(lib_a-nano-mallocr.o)
                0x00000000200025f8                __malloc_sbrk_start
 .bss._global_atexit0
                0x00000000200025fc       0x8c /usr/lib/gcc/arm-none-eabi/6.2.0/../../../../arm-none-eabi/lib/armv7e-m/fpu/libg_nano.a(lib_a-__atexit.o)
 .bss._global_atexit
                0x0000000020002688        0x4 /usr/lib/gcc/arm-none-eabi/6.2.0/../../../../arm-none-eabi/lib/armv7e-m/fpu/libg_nano.a(lib_a-__call_atexit.o)
                0x0000000020002688                _global_atexit
 .bss.heap_end.5215
                0x000000002000268c        0x4 /usr/lib/gcc/arm-none-eabi/6.2.0/../../../../arm-none-eabi/lib/armv7e-m/fpu/libnosys.a(sbrk.o)
 *(COMMON)
 COMMON         0x0000000020002690     0x1040 ./uCOS-III/Source/os_cfg_app.o
                0x0000000020002690                OSCfg_StatTaskStk
                0x0000000020002890                OSCfg_MsgPool
                0x0000000020002ed0                OSCfg_TmrTaskStk
                0x00000000200030d0                OSCfg_ISRStk
                0x00000000200032d0                OSCfg_TickTaskStk
                0x00000000200034d0                OSCfg_IdleTaskStk
 COMMON         0x00000000200036d0        0x4 ./uCOS-III/Source/os_prio.o
                0x00000000200036d0                OSPrioTbl
 COMMON         0x00000000200036d4      0x590 ./uCOS-III/Source/os_var.o
                0x00000000200036d4                OSSchedLockNestingCtr
                0x00000000200036d8                OS_AppTaskReturnHookPtr
                0x00000000200036dc                OSStatTaskTimeMax
                0x00000000200036e0                OSStatTaskCtr
                0x00000000200036e4                OSTaskRegNextAvailID
                0x00000000200036e5                OSRunning
                0x00000000200036e8                OSRdyList
                0x0000000020003868                OSPrioHighRdy
                0x0000000020003869                OSStatTaskRdy
                0x000000002000386c                OSSemDbgListPtr
                0x0000000020003870                OS_AppTaskCreateHookPtr
                0x0000000020003874                OSPrioCur
                0x0000000020003878                OSTickTaskTCB
                0x000000002000393c                OSTmrTickCtr
                0x0000000020003940                OSTCBCurPtr
                0x0000000020003944                OSQQty
                0x0000000020003946                OSStatTaskCPUUsageMax
                0x0000000020003948                OSPrioSaved
                0x000000002000394c                OSTCBHighRdyPtr
                0x0000000020003950                OSTaskDbgListPtr
                0x0000000020003954                OSTmrTaskTimeMax
                0x0000000020003958                OS_AppTaskDelHookPtr
                0x000000002000395c                OS_AppTimeTickHookPtr
                0x0000000020003960                OSStatTaskCPUUsage
                0x0000000020003964                OSTaskCtxSwCtr
                0x0000000020003968                OSIntNestingCtr
                0x000000002000396a                OSTaskQty
                0x000000002000396c                OSTmrTaskTCB
                0x0000000020003a30                OSMsgPool
                0x0000000020003a3c                OSIdleTaskTCB
                0x0000000020003b00                OSQDbgListPtr
                0x0000000020003b04                OSSemQty
                0x0000000020003b08                OSMemDbgListPtr
                0x0000000020003b0c                OSSchedRoundRobinDfltTimeQuanta
                0x0000000020003b10                OSTmrMutex
                0x0000000020003b40                OS_AppIdleTaskHookPtr
                0x0000000020003b44                OSStatTaskCtrMax
                0x0000000020003b48                OSTickCtr
                0x0000000020003b4c                OS_AppTaskSwHookPtr
                0x0000000020003b50                OSTmrQty
                0x0000000020003b54                OSIdleTaskCtr
                0x0000000020003b58                OSStatTaskCtrRun
                0x0000000020003b5c                OS_AppStatTaskHookPtr
                0x0000000020003b60                OSFlagQty
                0x0000000020003b64                OSFlagDbgListPtr
                0x0000000020003b68                OSStatResetFlag
                0x0000000020003b6a                OSMemQty
                0x0000000020003b6c                OSMutexQty
                0x0000000020003b70                OSStatTaskTCB
                0x0000000020003c34                OSTmrListPtr
                0x0000000020003c38                OSTmrDbgListPtr
                0x0000000020003c3c                OSTickTaskTimeMax
                0x0000000020003c40                OSTmrListEntries
                0x0000000020003c44                OSTmrUpdateCnt
                0x0000000020003c48                OSSchedRoundRobinEn
                0x0000000020003c4c                OSMutexDbgListPtr
                0x0000000020003c50                OSTickListDly
                0x0000000020003c58                OSTmrUpdateCtr
                0x0000000020003c5c                OSTickListTimeout
 COMMON         0x0000000020003c64        0x4 ./uCOS-III/Ports/ARM-Cortex-M4/Generic/GNU/os_cpu_c.o
                0x0000000020003c64                OS_CPU_ExceptStkBase
 COMMON         0x0000000020003c68        0x4 ./uC-LIB/lib_math.o
                0x0000000020003c68                Math_RandSeedCur
 COMMON         0x0000000020003c6c      0x418 ./uC-LIB/lib_mem.o
                0x0000000020003c6c                Mem_SegHeap
                0x0000000020003c80                Mem_SegHeadPtr
                0x0000000020003c84                Mem_Heap
 COMMON         0x0000000020004084       0x14 ./uC-CPU/cpu_core.o
                0x0000000020004084                CPU_TS_TmrFreq_Hz
                0x0000000020004088                CPU_Name
 COMMON         0x0000000020004098        0x4 /usr/lib/gcc/arm-none-eabi/6.2.0/../../../../arm-none-eabi/lib/armv7e-m/fpu/libg_nano.a(lib_a-reent.o)
                0x0000000020004098                errno
                0x000000002000409c                . = ALIGN (0x4)
                0x000000002000409c                __bss_end__ = .
                0x000000002000409c                __END_BSS = .

.heap           0x000000001fff0400     0x8000
                0x000000001fff0400                . = ALIGN (0x8)
                0x000000001fff0400                __end__ = .
                0x000000001fff0400                PROVIDE (end, .)
                0x000000001fff0400                __HeapBase = .
                0x000000001fff8400                . = (. + HEAP_SIZE)
 *fill*         0x000000001fff0400     0x8000 
                0x000000001fff8400                __HeapLimit = .

.stack          0x000000001fff8400     0x4000
                0x000000001fff8400                . = ALIGN (0x8)
                0x000000001fffc400                . = (. + STACK_SIZE)
 *fill*         0x000000001fff8400     0x4000 
                0x000000001fffc400                __StackTop = .
                0x000000001fff8400                __StackLimit = (__StackTop - STACK_SIZE)
                0x000000001fffc400                PROVIDE (__stack, __StackTop)

.ARM.attributes
                0x0000000000000000       0x2e
 *(.ARM.attributes)
 .ARM.attributes
                0x0000000000000000       0x22 /usr/lib/gcc/arm-none-eabi/6.2.0/armv7e-m/fpu/crti.o
 .ARM.attributes
                0x0000000000000022       0x34 /usr/lib/gcc/arm-none-eabi/6.2.0/armv7e-m/fpu/crtbegin.o
 .ARM.attributes
                0x0000000000000056       0x20 /usr/lib/gcc/arm-none-eabi/6.2.0/../../../../arm-none-eabi/lib/armv7e-m/fpu/crt0.o
 .ARM.attributes
                0x0000000000000076       0x39 ./uCOS-III/Source/os_cfg_app.o
 .ARM.attributes
                0x00000000000000af       0x39 ./uCOS-III/Source/os_core.o
 .ARM.attributes
                0x00000000000000e8       0x39 ./uCOS-III/Source/os_dbg.o
 .ARM.attributes
                0x0000000000000121       0x39 ./uCOS-III/Source/os_flag.o
 .ARM.attributes
                0x000000000000015a       0x39 ./uCOS-III/Source/os_mem.o
 .ARM.attributes
                0x0000000000000193       0x39 ./uCOS-III/Source/os_msg.o
 .ARM.attributes
                0x00000000000001cc       0x39 ./uCOS-III/Source/os_mutex.o
 .ARM.attributes
                0x0000000000000205       0x39 ./uCOS-III/Source/os_prio.o
 .ARM.attributes
                0x000000000000023e       0x39 ./uCOS-III/Source/os_q.o
 .ARM.attributes
                0x0000000000000277       0x39 ./uCOS-III/Source/os_sem.o
 .ARM.attributes
                0x00000000000002b0       0x39 ./uCOS-III/Source/os_stat.o
 .ARM.attributes
                0x00000000000002e9       0x39 ./uCOS-III/Source/os_task.o
 .ARM.attributes
                0x0000000000000322       0x39 ./uCOS-III/Source/os_tick.o
 .ARM.attributes
                0x000000000000035b       0x39 ./uCOS-III/Source/os_time.o
 .ARM.attributes
                0x0000000000000394       0x39 ./uCOS-III/Source/os_tmr.o
 .ARM.attributes
                0x00000000000003cd       0x39 ./uCOS-III/Source/os_var.o
 .ARM.attributes
                0x0000000000000406       0x25 ./uCOS-III/Ports/ARM-Cortex-M4/Generic/GNU/os_cpu_a.o
 .ARM.attributes
                0x000000000000042b       0x39 ./uCOS-III/Ports/ARM-Cortex-M4/Generic/GNU/os_cpu_c.o
 .ARM.attributes
                0x0000000000000464       0x39 ./uC-LIB/lib_math.o
 .ARM.attributes
                0x000000000000049d       0x39 ./uC-LIB/lib_mem.o
 .ARM.attributes
                0x00000000000004d6       0x39 ./uC-LIB/lib_str.o
 .ARM.attributes
                0x000000000000050f       0x25 ./uC-CPU/ARM-Cortex-M4/GNU/cpu_a.o
 .ARM.attributes
                0x0000000000000534       0x39 ./uC-CPU/cpu_core.o
 .ARM.attributes
                0x000000000000056d       0x39 ./KSDK/platform/system/interrupt/src/fsl_interrupt_manager.o
 .ARM.attributes
                0x00000000000005a6       0x39 ./KSDK/platform/system/clock/MK64F12/fsl_clock_K64F12.o
 .ARM.attributes
                0x00000000000005df       0x39 ./KSDK/platform/system/clock/fsl_clock_manager.o
 .ARM.attributes
                0x0000000000000618       0x39 ./KSDK/platform/startup/MK64F12/system_MK64F12.o
 .ARM.attributes
                0x0000000000000651       0x39 ./KSDK/platform/osa/src/fsl_os_abstraction_ucosiii.o
 .ARM.attributes
                0x000000000000068a       0x39 ./KSDK/platform/hal/uart/fsl_uart_hal.o
 .ARM.attributes
                0x00000000000006c3       0x39 ./KSDK/platform/hal/sim/MK64F12/fsl_sim_hal_K64F12.o
 .ARM.attributes
                0x00000000000006fc       0x39 ./KSDK/platform/hal/sim/fsl_sim_hal.o
 .ARM.attributes
                0x0000000000000735       0x39 ./KSDK/platform/hal/mcg/fsl_mcg_hal.o
 .ARM.attributes
                0x000000000000076e       0x39 ./KSDK/platform/hal/gpio/fsl_gpio_hal.o
 .ARM.attributes
                0x00000000000007a7       0x39 ./KSDK/platform/drivers/uart/src/fsl_uart_driver.o
 .ARM.attributes
                0x00000000000007e0       0x39 ./KSDK/platform/drivers/uart/common/fsl_uart_common.o
 .ARM.attributes
                0x0000000000000819       0x39 ./KSDK/platform/drivers/gpio/src/fsl_gpio_driver.o
 .ARM.attributes
                0x0000000000000852       0x39 ./KSDK/platform/drivers/gpio/common/fsl_gpio_common.o
 .ARM.attributes
                0x000000000000088b       0x39 ./KSDK/boards/frdmk64f120m/gpio_pins.o
 .ARM.attributes
                0x00000000000008c4       0x39 ./KSDK/boards/frdmk64f120m/hardware_init.o
 .ARM.attributes
                0x00000000000008fd       0x39 ./KSDK/boards/frdmk64f120m/pin_mux.o
 .ARM.attributes
                0x0000000000000936       0x1f ./BSP/KSDK/KDS/startup_MK64F12.o
 .ARM.attributes
                0x0000000000000955       0x39 ./BSP/KSDK/startup.o
 .ARM.attributes
                0x000000000000098e       0x39 ./BSP/bsp_ser.o
 .ARM.attributes
                0x00000000000009c7       0x39 ./BSP/cpu_bsp.o
 .ARM.attributes
                0x0000000000000a00       0x39 ./APP/app.o
 .ARM.attributes
                0x0000000000000a39       0x34 /usr/lib/gcc/arm-none-eabi/6.2.0/../../../../arm-none-eabi/lib/armv7e-m/fpu/libm.a(lib_a-s_cos.o)
 .ARM.attributes
                0x0000000000000a6d       0x34 /usr/lib/gcc/arm-none-eabi/6.2.0/../../../../arm-none-eabi/lib/armv7e-m/fpu/libm.a(lib_a-s_sin.o)
 .ARM.attributes
                0x0000000000000aa1       0x34 /usr/lib/gcc/arm-none-eabi/6.2.0/../../../../arm-none-eabi/lib/armv7e-m/fpu/libm.a(lib_a-w_exp.o)
 .ARM.attributes
                0x0000000000000ad5       0x34 /usr/lib/gcc/arm-none-eabi/6.2.0/../../../../arm-none-eabi/lib/armv7e-m/fpu/libm.a(lib_a-e_exp.o)
 .ARM.attributes
                0x0000000000000b09       0x34 /usr/lib/gcc/arm-none-eabi/6.2.0/../../../../arm-none-eabi/lib/armv7e-m/fpu/libm.a(lib_a-e_rem_pio2.o)
 .ARM.attributes
                0x0000000000000b3d       0x34 /usr/lib/gcc/arm-none-eabi/6.2.0/../../../../arm-none-eabi/lib/armv7e-m/fpu/libm.a(lib_a-k_cos.o)
 .ARM.attributes
                0x0000000000000b71       0x34 /usr/lib/gcc/arm-none-eabi/6.2.0/../../../../arm-none-eabi/lib/armv7e-m/fpu/libm.a(lib_a-k_rem_pio2.o)
 .ARM.attributes
                0x0000000000000ba5       0x34 /usr/lib/gcc/arm-none-eabi/6.2.0/../../../../arm-none-eabi/lib/armv7e-m/fpu/libm.a(lib_a-k_sin.o)
 .ARM.attributes
                0x0000000000000bd9       0x34 /usr/lib/gcc/arm-none-eabi/6.2.0/../../../../arm-none-eabi/lib/armv7e-m/fpu/libm.a(lib_a-s_fabs.o)
 .ARM.attributes
                0x0000000000000c0d       0x34 /usr/lib/gcc/arm-none-eabi/6.2.0/../../../../arm-none-eabi/lib/armv7e-m/fpu/libm.a(lib_a-s_finite.o)
 .ARM.attributes
                0x0000000000000c41       0x34 /usr/lib/gcc/arm-none-eabi/6.2.0/../../../../arm-none-eabi/lib/armv7e-m/fpu/libm.a(lib_a-s_floor.o)
 .ARM.attributes
                0x0000000000000c75       0x34 /usr/lib/gcc/arm-none-eabi/6.2.0/../../../../arm-none-eabi/lib/armv7e-m/fpu/libm.a(lib_a-s_lib_ver.o)
 .ARM.attributes
                0x0000000000000ca9       0x34 /usr/lib/gcc/arm-none-eabi/6.2.0/../../../../arm-none-eabi/lib/armv7e-m/fpu/libm.a(lib_a-s_matherr.o)
 .ARM.attributes
                0x0000000000000cdd       0x34 /usr/lib/gcc/arm-none-eabi/6.2.0/../../../../arm-none-eabi/lib/armv7e-m/fpu/libm.a(lib_a-s_scalbn.o)
 .ARM.attributes
                0x0000000000000d11       0x34 /usr/lib/gcc/arm-none-eabi/6.2.0/../../../../arm-none-eabi/lib/armv7e-m/fpu/libm.a(lib_a-s_copysign.o)
 .ARM.attributes
                0x0000000000000d45       0x22 /usr/lib/gcc/arm-none-eabi/6.2.0/armv7e-m/fpu/libgcc.a(_arm_addsubdf3.o)
 .ARM.attributes
                0x0000000000000d67       0x22 /usr/lib/gcc/arm-none-eabi/6.2.0/armv7e-m/fpu/libgcc.a(_arm_muldivdf3.o)
 .ARM.attributes
                0x0000000000000d89       0x22 /usr/lib/gcc/arm-none-eabi/6.2.0/armv7e-m/fpu/libgcc.a(_arm_cmpdf2.o)
 .ARM.attributes
                0x0000000000000dab       0x22 /usr/lib/gcc/arm-none-eabi/6.2.0/armv7e-m/fpu/libgcc.a(_arm_fixdfsi.o)
 .ARM.attributes
                0x0000000000000dcd       0x22 /usr/lib/gcc/arm-none-eabi/6.2.0/armv7e-m/fpu/libgcc.a(_arm_truncdfsf2.o)
 .ARM.attributes
                0x0000000000000def       0x34 /usr/lib/gcc/arm-none-eabi/6.2.0/../../../../arm-none-eabi/lib/armv7e-m/fpu/libg_nano.a(lib_a-assert.o)
 .ARM.attributes
                0x0000000000000e23       0x34 /usr/lib/gcc/arm-none-eabi/6.2.0/../../../../arm-none-eabi/lib/armv7e-m/fpu/libg_nano.a(lib_a-atexit.o)
 .ARM.attributes
                0x0000000000000e57       0x34 /usr/lib/gcc/arm-none-eabi/6.2.0/../../../../arm-none-eabi/lib/armv7e-m/fpu/libg_nano.a(lib_a-errno.o)
 .ARM.attributes
                0x0000000000000e8b       0x34 /usr/lib/gcc/arm-none-eabi/6.2.0/../../../../arm-none-eabi/lib/armv7e-m/fpu/libg_nano.a(lib_a-exit.o)
 .ARM.attributes
                0x0000000000000ebf       0x34 /usr/lib/gcc/arm-none-eabi/6.2.0/../../../../arm-none-eabi/lib/armv7e-m/fpu/libg_nano.a(lib_a-fini.o)
 .ARM.attributes
                0x0000000000000ef3       0x34 /usr/lib/gcc/arm-none-eabi/6.2.0/../../../../arm-none-eabi/lib/armv7e-m/fpu/libg_nano.a(lib_a-fprintf.o)
 .ARM.attributes
                0x0000000000000f27       0x34 /usr/lib/gcc/arm-none-eabi/6.2.0/../../../../arm-none-eabi/lib/armv7e-m/fpu/libg_nano.a(lib_a-impure.o)
 .ARM.attributes
                0x0000000000000f5b       0x34 /usr/lib/gcc/arm-none-eabi/6.2.0/../../../../arm-none-eabi/lib/armv7e-m/fpu/libg_nano.a(lib_a-init.o)
 .ARM.attributes
                0x0000000000000f8f       0x34 /usr/lib/gcc/arm-none-eabi/6.2.0/../../../../arm-none-eabi/lib/armv7e-m/fpu/libg_nano.a(lib_a-malloc.o)
 .ARM.attributes
                0x0000000000000fc3       0x34 /usr/lib/gcc/arm-none-eabi/6.2.0/../../../../arm-none-eabi/lib/armv7e-m/fpu/libg_nano.a(lib_a-memset.o)
 .ARM.attributes
                0x0000000000000ff7       0x34 /usr/lib/gcc/arm-none-eabi/6.2.0/../../../../arm-none-eabi/lib/armv7e-m/fpu/libg_nano.a(lib_a-nano-freer.o)
 .ARM.attributes
                0x000000000000102b       0x34 /usr/lib/gcc/arm-none-eabi/6.2.0/../../../../arm-none-eabi/lib/armv7e-m/fpu/libg_nano.a(lib_a-nano-mallocr.o)
 .ARM.attributes
                0x000000000000105f       0x34 /usr/lib/gcc/arm-none-eabi/6.2.0/../../../../arm-none-eabi/lib/armv7e-m/fpu/libg_nano.a(lib_a-nano-vfprintf.o)
 .ARM.attributes
                0x0000000000001093       0x34 /usr/lib/gcc/arm-none-eabi/6.2.0/../../../../arm-none-eabi/lib/armv7e-m/fpu/libg_nano.a(lib_a-nano-vfprintf_i.o)
 .ARM.attributes
                0x00000000000010c7       0x34 /usr/lib/gcc/arm-none-eabi/6.2.0/../../../../arm-none-eabi/lib/armv7e-m/fpu/libg_nano.a(lib_a-sbrkr.o)
 .ARM.attributes
                0x00000000000010fb       0x34 /usr/lib/gcc/arm-none-eabi/6.2.0/../../../../arm-none-eabi/lib/armv7e-m/fpu/libg_nano.a(lib_a-vsprintf.o)
 .ARM.attributes
                0x000000000000112f       0x34 /usr/lib/gcc/arm-none-eabi/6.2.0/../../../../arm-none-eabi/lib/armv7e-m/fpu/libg_nano.a(lib_a-wbuf.o)
 .ARM.attributes
                0x0000000000001163       0x34 /usr/lib/gcc/arm-none-eabi/6.2.0/../../../../arm-none-eabi/lib/armv7e-m/fpu/libg_nano.a(lib_a-wsetup.o)
 .ARM.attributes
                0x0000000000001197       0x34 /usr/lib/gcc/arm-none-eabi/6.2.0/../../../../arm-none-eabi/lib/armv7e-m/fpu/libg_nano.a(lib_a-__atexit.o)
 .ARM.attributes
                0x00000000000011cb       0x34 /usr/lib/gcc/arm-none-eabi/6.2.0/../../../../arm-none-eabi/lib/armv7e-m/fpu/libg_nano.a(lib_a-__call_atexit.o)
 .ARM.attributes
                0x00000000000011ff       0x34 /usr/lib/gcc/arm-none-eabi/6.2.0/../../../../arm-none-eabi/lib/armv7e-m/fpu/libg_nano.a(lib_a-abort.o)
 .ARM.attributes
                0x0000000000001233       0x34 /usr/lib/gcc/arm-none-eabi/6.2.0/../../../../arm-none-eabi/lib/armv7e-m/fpu/libg_nano.a(lib_a-fflush.o)
 .ARM.attributes
                0x0000000000001267       0x34 /usr/lib/gcc/arm-none-eabi/6.2.0/../../../../arm-none-eabi/lib/armv7e-m/fpu/libg_nano.a(lib_a-findfp.o)
 .ARM.attributes
                0x000000000000129b       0x34 /usr/lib/gcc/arm-none-eabi/6.2.0/../../../../arm-none-eabi/lib/armv7e-m/fpu/libg_nano.a(lib_a-fwalk.o)
 .ARM.attributes
                0x00000000000012cf       0x34 /usr/lib/gcc/arm-none-eabi/6.2.0/../../../../arm-none-eabi/lib/armv7e-m/fpu/libg_nano.a(lib_a-makebuf.o)
 .ARM.attributes
                0x0000000000001303       0x20 /usr/lib/gcc/arm-none-eabi/6.2.0/../../../../arm-none-eabi/lib/armv7e-m/fpu/libg_nano.a(lib_a-memchr.o)
 .ARM.attributes
                0x0000000000001323       0x34 /usr/lib/gcc/arm-none-eabi/6.2.0/../../../../arm-none-eabi/lib/armv7e-m/fpu/libg_nano.a(lib_a-memcpy-stub.o)
 .ARM.attributes
                0x0000000000001357       0x34 /usr/lib/gcc/arm-none-eabi/6.2.0/../../../../arm-none-eabi/lib/armv7e-m/fpu/libg_nano.a(lib_a-memmove.o)
 .ARM.attributes
                0x000000000000138b       0x34 /usr/lib/gcc/arm-none-eabi/6.2.0/../../../../arm-none-eabi/lib/armv7e-m/fpu/libg_nano.a(lib_a-nano-reallocr.o)
 .ARM.attributes
                0x00000000000013bf       0x34 /usr/lib/gcc/arm-none-eabi/6.2.0/../../../../arm-none-eabi/lib/armv7e-m/fpu/libg_nano.a(lib_a-nano-svfprintf.o)
 .ARM.attributes
                0x00000000000013f3       0x34 /usr/lib/gcc/arm-none-eabi/6.2.0/../../../../arm-none-eabi/lib/armv7e-m/fpu/libg_nano.a(lib_a-reent.o)
 .ARM.attributes
                0x0000000000001427       0x34 /usr/lib/gcc/arm-none-eabi/6.2.0/../../../../arm-none-eabi/lib/armv7e-m/fpu/libg_nano.a(lib_a-signal.o)
 .ARM.attributes
                0x000000000000145b       0x34 /usr/lib/gcc/arm-none-eabi/6.2.0/../../../../arm-none-eabi/lib/armv7e-m/fpu/libg_nano.a(lib_a-signalr.o)
 .ARM.attributes
                0x000000000000148f       0x34 /usr/lib/gcc/arm-none-eabi/6.2.0/../../../../arm-none-eabi/lib/armv7e-m/fpu/libg_nano.a(lib_a-stdio.o)
 .ARM.attributes
                0x00000000000014c3       0x34 /usr/lib/gcc/arm-none-eabi/6.2.0/../../../../arm-none-eabi/lib/armv7e-m/fpu/libg_nano.a(lib_a-writer.o)
 .ARM.attributes
                0x00000000000014f7       0x34 /usr/lib/gcc/arm-none-eabi/6.2.0/../../../../arm-none-eabi/lib/armv7e-m/fpu/libg_nano.a(lib_a-closer.o)
 .ARM.attributes
                0x000000000000152b       0x34 /usr/lib/gcc/arm-none-eabi/6.2.0/../../../../arm-none-eabi/lib/armv7e-m/fpu/libg_nano.a(lib_a-fstatr.o)
 .ARM.attributes
                0x000000000000155f       0x34 /usr/lib/gcc/arm-none-eabi/6.2.0/../../../../arm-none-eabi/lib/armv7e-m/fpu/libg_nano.a(lib_a-isattyr.o)
 .ARM.attributes
                0x0000000000001593       0x34 /usr/lib/gcc/arm-none-eabi/6.2.0/../../../../arm-none-eabi/lib/armv7e-m/fpu/libg_nano.a(lib_a-lseekr.o)
 .ARM.attributes
                0x00000000000015c7       0x34 /usr/lib/gcc/arm-none-eabi/6.2.0/../../../../arm-none-eabi/lib/armv7e-m/fpu/libg_nano.a(lib_a-nano-msizer.o)
 .ARM.attributes
                0x00000000000015fb       0x34 /usr/lib/gcc/arm-none-eabi/6.2.0/../../../../arm-none-eabi/lib/armv7e-m/fpu/libg_nano.a(lib_a-readr.o)
 .ARM.attributes
                0x000000000000162f       0x34 /usr/lib/gcc/arm-none-eabi/6.2.0/../../../../arm-none-eabi/lib/armv7e-m/fpu/libnosys.a(close.o)
 .ARM.attributes
                0x0000000000001663       0x34 /usr/lib/gcc/arm-none-eabi/6.2.0/../../../../arm-none-eabi/lib/armv7e-m/fpu/libnosys.a(fstat.o)
 .ARM.attributes
                0x0000000000001697       0x34 /usr/lib/gcc/arm-none-eabi/6.2.0/../../../../arm-none-eabi/lib/armv7e-m/fpu/libnosys.a(getpid.o)
 .ARM.attributes
                0x00000000000016cb       0x34 /usr/lib/gcc/arm-none-eabi/6.2.0/../../../../arm-none-eabi/lib/armv7e-m/fpu/libnosys.a(isatty.o)
 .ARM.attributes
                0x00000000000016ff       0x34 /usr/lib/gcc/arm-none-eabi/6.2.0/../../../../arm-none-eabi/lib/armv7e-m/fpu/libnosys.a(kill.o)
 .ARM.attributes
                0x0000000000001733       0x34 /usr/lib/gcc/arm-none-eabi/6.2.0/../../../../arm-none-eabi/lib/armv7e-m/fpu/libnosys.a(lseek.o)
 .ARM.attributes
                0x0000000000001767       0x34 /usr/lib/gcc/arm-none-eabi/6.2.0/../../../../arm-none-eabi/lib/armv7e-m/fpu/libnosys.a(read.o)
 .ARM.attributes
                0x000000000000179b       0x34 /usr/lib/gcc/arm-none-eabi/6.2.0/../../../../arm-none-eabi/lib/armv7e-m/fpu/libnosys.a(sbrk.o)
 .ARM.attributes
                0x00000000000017cf       0x34 /usr/lib/gcc/arm-none-eabi/6.2.0/../../../../arm-none-eabi/lib/armv7e-m/fpu/libnosys.a(write.o)
 .ARM.attributes
                0x0000000000001803       0x34 /usr/lib/gcc/arm-none-eabi/6.2.0/../../../../arm-none-eabi/lib/armv7e-m/fpu/libnosys.a(_exit.o)
 .ARM.attributes
                0x0000000000001837       0x34 /usr/lib/gcc/arm-none-eabi/6.2.0/armv7e-m/fpu/crtend.o
 .ARM.attributes
                0x000000000000186b       0x22 /usr/lib/gcc/arm-none-eabi/6.2.0/armv7e-m/fpu/crtn.o
OUTPUT(OS3-KSDK.elf elf32-littlearm)

.debug_info     0x0000000000000000    0x20dbe
 .debug_info    0x0000000000000000      0x4a6 ./uCOS-III/Source/os_cfg_app.o
 .debug_info    0x00000000000004a6     0x1821 ./uCOS-III/Source/os_core.o
 .debug_info    0x0000000000001cc7     0x1394 ./uCOS-III/Source/os_dbg.o
 .debug_info    0x000000000000305b     0x11c4 ./uCOS-III/Source/os_flag.o
 .debug_info    0x000000000000421f      0x829 ./uCOS-III/Source/os_mem.o
 .debug_info    0x0000000000004a48      0x8f4 ./uCOS-III/Source/os_msg.o
 .debug_info    0x000000000000533c     0x10c0 ./uCOS-III/Source/os_mutex.o
 .debug_info    0x00000000000063fc      0x1bb ./uCOS-III/Source/os_prio.o
 .debug_info    0x00000000000065b7     0x116b ./uCOS-III/Source/os_q.o
 .debug_info    0x0000000000007722     0x1148 ./uCOS-III/Source/os_sem.o
 .debug_info    0x000000000000886a     0x1025 ./uCOS-III/Source/os_stat.o
 .debug_info    0x000000000000988f     0x15f6 ./uCOS-III/Source/os_task.o
 .debug_info    0x000000000000ae85      0xf9d ./uCOS-III/Source/os_tick.o
 .debug_info    0x000000000000be22      0xefc ./uCOS-III/Source/os_time.o
 .debug_info    0x000000000000cd1e     0x1290 ./uCOS-III/Source/os_tmr.o
 .debug_info    0x000000000000dfae      0xf8d ./uCOS-III/Source/os_var.o
 .debug_info    0x000000000000ef3b      0x173 ./uCOS-III/Ports/ARM-Cortex-M4/Generic/GNU/os_cpu_a.o
 .debug_info    0x000000000000f0ae      0x9cd ./uCOS-III/Ports/ARM-Cortex-M4/Generic/GNU/os_cpu_c.o
 .debug_info    0x000000000000fa7b      0x13a ./uC-LIB/lib_math.o
 .debug_info    0x000000000000fbb5     0x1120 ./uC-LIB/lib_mem.o
 .debug_info    0x0000000000010cd5      0xd4a ./uC-LIB/lib_str.o
 .debug_info    0x0000000000011a1f      0x160 ./uC-CPU/ARM-Cortex-M4/GNU/cpu_a.o
 .debug_info    0x0000000000011b7f      0x4fa ./uC-CPU/cpu_core.o
 .debug_info    0x0000000000012079      0x407 ./KSDK/platform/system/interrupt/src/fsl_interrupt_manager.o
 .debug_info    0x0000000000012480      0x9c2 ./KSDK/platform/system/clock/MK64F12/fsl_clock_K64F12.o
 .debug_info    0x0000000000012e42      0x558 ./KSDK/platform/system/clock/fsl_clock_manager.o
 .debug_info    0x000000000001339a      0xb09 ./KSDK/platform/startup/MK64F12/system_MK64F12.o
 .debug_info    0x0000000000013ea3     0x1cc2 ./KSDK/platform/osa/src/fsl_os_abstraction_ucosiii.o
 .debug_info    0x0000000000015b65     0x1301 ./KSDK/platform/hal/uart/fsl_uart_hal.o
 .debug_info    0x0000000000016e66     0x1468 ./KSDK/platform/hal/sim/MK64F12/fsl_sim_hal_K64F12.o
 .debug_info    0x00000000000182ce     0x12c2 ./KSDK/platform/hal/sim/fsl_sim_hal.o
 .debug_info    0x0000000000019590      0xaa8 ./KSDK/platform/hal/mcg/fsl_mcg_hal.o
 .debug_info    0x000000000001a038      0x277 ./KSDK/platform/hal/gpio/fsl_gpio_hal.o
 .debug_info    0x000000000001a2af     0x1c08 ./KSDK/platform/drivers/uart/src/fsl_uart_driver.o
 .debug_info    0x000000000001beb7      0x37e ./KSDK/platform/drivers/uart/common/fsl_uart_common.o
 .debug_info    0x000000000001c235     0x127f ./KSDK/platform/drivers/gpio/src/fsl_gpio_driver.o
 .debug_info    0x000000000001d4b4      0x376 ./KSDK/platform/drivers/gpio/common/fsl_gpio_common.o
 .debug_info    0x000000000001d82a      0x380 ./KSDK/boards/frdmk64f120m/gpio_pins.o
 .debug_info    0x000000000001dbaa      0x174 ./KSDK/boards/frdmk64f120m/hardware_init.o
 .debug_info    0x000000000001dd1e      0x721 ./KSDK/boards/frdmk64f120m/pin_mux.o
 .debug_info    0x000000000001e43f      0x152 ./BSP/KSDK/KDS/startup_MK64F12.o
 .debug_info    0x000000000001e591      0x37b ./BSP/KSDK/startup.o
 .debug_info    0x000000000001e90c      0xfcd ./BSP/bsp_ser.o
 .debug_info    0x000000000001f8d9      0x170 ./BSP/cpu_bsp.o
 .debug_info    0x000000000001fa49     0x1375 ./APP/app.o

.debug_abbrev   0x0000000000000000     0x3e31
 .debug_abbrev  0x0000000000000000       0xbb ./uCOS-III/Source/os_cfg_app.o
 .debug_abbrev  0x00000000000000bb      0x1cc ./uCOS-III/Source/os_core.o
 .debug_abbrev  0x0000000000000287       0xfa ./uCOS-III/Source/os_dbg.o
 .debug_abbrev  0x0000000000000381      0x1c8 ./uCOS-III/Source/os_flag.o
 .debug_abbrev  0x0000000000000549      0x13f ./uCOS-III/Source/os_mem.o
 .debug_abbrev  0x0000000000000688      0x14a ./uCOS-III/Source/os_msg.o
 .debug_abbrev  0x00000000000007d2      0x1c8 ./uCOS-III/Source/os_mutex.o
 .debug_abbrev  0x000000000000099a       0xc4 ./uCOS-III/Source/os_prio.o
 .debug_abbrev  0x0000000000000a5e      0x1c8 ./uCOS-III/Source/os_q.o
 .debug_abbrev  0x0000000000000c26      0x1c8 ./uCOS-III/Source/os_sem.o
 .debug_abbrev  0x0000000000000dee      0x15f ./uCOS-III/Source/os_stat.o
 .debug_abbrev  0x0000000000000f4d      0x1ac ./uCOS-III/Source/os_task.o
 .debug_abbrev  0x00000000000010f9      0x1c5 ./uCOS-III/Source/os_tick.o
 .debug_abbrev  0x00000000000012be      0x17b ./uCOS-III/Source/os_time.o
 .debug_abbrev  0x0000000000001439      0x20c ./uCOS-III/Source/os_tmr.o
 .debug_abbrev  0x0000000000001645       0xb5 ./uCOS-III/Source/os_var.o
 .debug_abbrev  0x00000000000016fa       0x14 ./uCOS-III/Ports/ARM-Cortex-M4/Generic/GNU/os_cpu_a.o
 .debug_abbrev  0x000000000000170e      0x1e4 ./uCOS-III/Ports/ARM-Cortex-M4/Generic/GNU/os_cpu_c.o
 .debug_abbrev  0x00000000000018f2       0xec ./uC-LIB/lib_math.o
 .debug_abbrev  0x00000000000019de      0x1f5 ./uC-LIB/lib_mem.o
 .debug_abbrev  0x0000000000001bd3      0x12e ./uC-LIB/lib_str.o
 .debug_abbrev  0x0000000000001d01       0x14 ./uC-CPU/ARM-Cortex-M4/GNU/cpu_a.o
 .debug_abbrev  0x0000000000001d15      0x1ad ./uC-CPU/cpu_core.o
 .debug_abbrev  0x0000000000001ec2      0x130 ./KSDK/platform/system/interrupt/src/fsl_interrupt_manager.o
 .debug_abbrev  0x0000000000001ff2      0x10e ./KSDK/platform/system/clock/MK64F12/fsl_clock_K64F12.o
 .debug_abbrev  0x0000000000002100      0x14b ./KSDK/platform/system/clock/fsl_clock_manager.o
 .debug_abbrev  0x000000000000224b      0x13c ./KSDK/platform/startup/MK64F12/system_MK64F12.o
 .debug_abbrev  0x0000000000002387      0x237 ./KSDK/platform/osa/src/fsl_os_abstraction_ucosiii.o
 .debug_abbrev  0x00000000000025be      0x27b ./KSDK/platform/hal/uart/fsl_uart_hal.o
 .debug_abbrev  0x0000000000002839      0x162 ./KSDK/platform/hal/sim/MK64F12/fsl_sim_hal_K64F12.o
 .debug_abbrev  0x000000000000299b      0x1d8 ./KSDK/platform/hal/sim/fsl_sim_hal.o
 .debug_abbrev  0x0000000000002b73      0x1ad ./KSDK/platform/hal/mcg/fsl_mcg_hal.o
 .debug_abbrev  0x0000000000002d20      0x150 ./KSDK/platform/hal/gpio/fsl_gpio_hal.o
 .debug_abbrev  0x0000000000002e70      0x2cb ./KSDK/platform/drivers/uart/src/fsl_uart_driver.o
 .debug_abbrev  0x000000000000313b       0x9f ./KSDK/platform/drivers/uart/common/fsl_uart_common.o
 .debug_abbrev  0x00000000000031da      0x2f7 ./KSDK/platform/drivers/gpio/src/fsl_gpio_driver.o
 .debug_abbrev  0x00000000000034d1       0x98 ./KSDK/platform/drivers/gpio/common/fsl_gpio_common.o
 .debug_abbrev  0x0000000000003569       0xa9 ./KSDK/boards/frdmk64f120m/gpio_pins.o
 .debug_abbrev  0x0000000000003612       0xdb ./KSDK/boards/frdmk64f120m/hardware_init.o
 .debug_abbrev  0x00000000000036ed      0x159 ./KSDK/boards/frdmk64f120m/pin_mux.o
 .debug_abbrev  0x0000000000003846       0x14 ./BSP/KSDK/KDS/startup_MK64F12.o
 .debug_abbrev  0x000000000000385a       0xf5 ./BSP/KSDK/startup.o
 .debug_abbrev  0x000000000000394f      0x24a ./BSP/bsp_ser.o
 .debug_abbrev  0x0000000000003b99       0xcc ./BSP/cpu_bsp.o
 .debug_abbrev  0x0000000000003c65      0x1cc ./APP/app.o

.debug_aranges  0x0000000000000000     0x1680
 .debug_aranges
                0x0000000000000000       0x20 ./uCOS-III/Source/os_cfg_app.o
 .debug_aranges
                0x0000000000000020      0x138 ./uCOS-III/Source/os_core.o
 .debug_aranges
                0x0000000000000158       0x20 ./uCOS-III/Source/os_dbg.o
 .debug_aranges
                0x0000000000000178       0x78 ./uCOS-III/Source/os_flag.o
 .debug_aranges
                0x00000000000001f0       0x40 ./uCOS-III/Source/os_mem.o
 .debug_aranges
                0x0000000000000230       0x40 ./uCOS-III/Source/os_msg.o
 .debug_aranges
                0x0000000000000270       0x78 ./uCOS-III/Source/os_mutex.o
 .debug_aranges
                0x00000000000002e8       0x38 ./uCOS-III/Source/os_prio.o
 .debug_aranges
                0x0000000000000320       0x70 ./uCOS-III/Source/os_q.o
 .debug_aranges
                0x0000000000000390       0x70 ./uCOS-III/Source/os_sem.o
 .debug_aranges
                0x0000000000000400       0x38 ./uCOS-III/Source/os_stat.o
 .debug_aranges
                0x0000000000000438       0xf0 ./uCOS-III/Source/os_task.o
 .debug_aranges
                0x0000000000000528       0x58 ./uCOS-III/Source/os_tick.o
 .debug_aranges
                0x0000000000000580       0x48 ./uCOS-III/Source/os_time.o
 .debug_aranges
                0x00000000000005c8       0x90 ./uCOS-III/Source/os_tmr.o
 .debug_aranges
                0x0000000000000658       0x18 ./uCOS-III/Source/os_var.o
 .debug_aranges
                0x0000000000000670       0x20 ./uCOS-III/Ports/ARM-Cortex-M4/Generic/GNU/os_cpu_a.o
 .debug_aranges
                0x0000000000000690       0x70 ./uCOS-III/Ports/ARM-Cortex-M4/Generic/GNU/os_cpu_c.o
 .debug_aranges
                0x0000000000000700       0x38 ./uC-LIB/lib_math.o
 .debug_aranges
                0x0000000000000738       0xf8 ./uC-LIB/lib_mem.o
 .debug_aranges
                0x0000000000000830       0xd8 ./uC-LIB/lib_str.o
 .debug_aranges
                0x0000000000000908       0x20 ./uC-CPU/ARM-Cortex-M4/GNU/cpu_a.o
 .debug_aranges
                0x0000000000000928       0xb0 ./uC-CPU/cpu_core.o
 .debug_aranges
                0x00000000000009d8       0x30 ./KSDK/platform/system/interrupt/src/fsl_interrupt_manager.o
 .debug_aranges
                0x0000000000000a08       0xe8 ./KSDK/platform/system/clock/MK64F12/fsl_clock_K64F12.o
 .debug_aranges
                0x0000000000000af0       0x48 ./KSDK/platform/system/clock/fsl_clock_manager.o
 .debug_aranges
                0x0000000000000b38       0x28 ./KSDK/platform/startup/MK64F12/system_MK64F12.o
 .debug_aranges
                0x0000000000000b60      0x128 ./KSDK/platform/osa/src/fsl_os_abstraction_ucosiii.o
 .debug_aranges
                0x0000000000000c88       0xf0 ./KSDK/platform/hal/uart/fsl_uart_hal.o
 .debug_aranges
                0x0000000000000d78      0x2b8 ./KSDK/platform/hal/sim/MK64F12/fsl_sim_hal_K64F12.o
 .debug_aranges
                0x0000000000001030       0xd0 ./KSDK/platform/hal/sim/fsl_sim_hal.o
 .debug_aranges
                0x0000000000001100       0xa0 ./KSDK/platform/hal/mcg/fsl_mcg_hal.o
 .debug_aranges
                0x00000000000011a0       0x28 ./KSDK/platform/hal/gpio/fsl_gpio_hal.o
 .debug_aranges
                0x00000000000011c8      0x150 ./KSDK/platform/drivers/uart/src/fsl_uart_driver.o
 .debug_aranges
                0x0000000000001318       0x18 ./KSDK/platform/drivers/uart/common/fsl_uart_common.o
 .debug_aranges
                0x0000000000001330      0x100 ./KSDK/platform/drivers/gpio/src/fsl_gpio_driver.o
 .debug_aranges
                0x0000000000001430       0x18 ./KSDK/platform/drivers/gpio/common/fsl_gpio_common.o
 .debug_aranges
                0x0000000000001448       0x18 ./KSDK/boards/frdmk64f120m/gpio_pins.o
 .debug_aranges
                0x0000000000001460       0x30 ./KSDK/boards/frdmk64f120m/hardware_init.o
 .debug_aranges
                0x0000000000001490       0xc0 ./KSDK/boards/frdmk64f120m/pin_mux.o
 .debug_aranges
                0x0000000000001550       0x20 ./BSP/KSDK/KDS/startup_MK64F12.o
 .debug_aranges
                0x0000000000001570       0x20 ./BSP/KSDK/startup.o
 .debug_aranges
                0x0000000000001590       0x68 ./BSP/bsp_ser.o
 .debug_aranges
                0x00000000000015f8       0x30 ./BSP/cpu_bsp.o
 .debug_aranges
                0x0000000000001628       0x58 ./APP/app.o

.debug_ranges   0x0000000000000000     0x1360
 .debug_ranges  0x0000000000000000       0x10 ./uCOS-III/Source/os_cfg_app.o
 .debug_ranges  0x0000000000000010      0x128 ./uCOS-III/Source/os_core.o
 .debug_ranges  0x0000000000000138       0x10 ./uCOS-III/Source/os_dbg.o
 .debug_ranges  0x0000000000000148       0x68 ./uCOS-III/Source/os_flag.o
 .debug_ranges  0x00000000000001b0       0x30 ./uCOS-III/Source/os_mem.o
 .debug_ranges  0x00000000000001e0       0x30 ./uCOS-III/Source/os_msg.o
 .debug_ranges  0x0000000000000210       0x68 ./uCOS-III/Source/os_mutex.o
 .debug_ranges  0x0000000000000278       0x28 ./uCOS-III/Source/os_prio.o
 .debug_ranges  0x00000000000002a0       0x60 ./uCOS-III/Source/os_q.o
 .debug_ranges  0x0000000000000300       0x60 ./uCOS-III/Source/os_sem.o
 .debug_ranges  0x0000000000000360       0x28 ./uCOS-III/Source/os_stat.o
 .debug_ranges  0x0000000000000388       0xe0 ./uCOS-III/Source/os_task.o
 .debug_ranges  0x0000000000000468       0x48 ./uCOS-III/Source/os_tick.o
 .debug_ranges  0x00000000000004b0       0x38 ./uCOS-III/Source/os_time.o
 .debug_ranges  0x00000000000004e8       0x80 ./uCOS-III/Source/os_tmr.o
 .debug_ranges  0x0000000000000568       0x60 ./uCOS-III/Ports/ARM-Cortex-M4/Generic/GNU/os_cpu_c.o
 .debug_ranges  0x00000000000005c8       0x28 ./uC-LIB/lib_math.o
 .debug_ranges  0x00000000000005f0       0xe8 ./uC-LIB/lib_mem.o
 .debug_ranges  0x00000000000006d8       0xc8 ./uC-LIB/lib_str.o
 .debug_ranges  0x00000000000007a0       0xa0 ./uC-CPU/cpu_core.o
 .debug_ranges  0x0000000000000840       0x20 ./KSDK/platform/system/interrupt/src/fsl_interrupt_manager.o
 .debug_ranges  0x0000000000000860       0xd8 ./KSDK/platform/system/clock/MK64F12/fsl_clock_K64F12.o
 .debug_ranges  0x0000000000000938       0x38 ./KSDK/platform/system/clock/fsl_clock_manager.o
 .debug_ranges  0x0000000000000970       0x18 ./KSDK/platform/startup/MK64F12/system_MK64F12.o
 .debug_ranges  0x0000000000000988      0x118 ./KSDK/platform/osa/src/fsl_os_abstraction_ucosiii.o
 .debug_ranges  0x0000000000000aa0       0xe0 ./KSDK/platform/hal/uart/fsl_uart_hal.o
 .debug_ranges  0x0000000000000b80      0x2a8 ./KSDK/platform/hal/sim/MK64F12/fsl_sim_hal_K64F12.o
 .debug_ranges  0x0000000000000e28       0xc0 ./KSDK/platform/hal/sim/fsl_sim_hal.o
 .debug_ranges  0x0000000000000ee8       0x90 ./KSDK/platform/hal/mcg/fsl_mcg_hal.o
 .debug_ranges  0x0000000000000f78       0x18 ./KSDK/platform/hal/gpio/fsl_gpio_hal.o
 .debug_ranges  0x0000000000000f90      0x140 ./KSDK/platform/drivers/uart/src/fsl_uart_driver.o
 .debug_ranges  0x00000000000010d0       0xf0 ./KSDK/platform/drivers/gpio/src/fsl_gpio_driver.o
 .debug_ranges  0x00000000000011c0       0x20 ./KSDK/boards/frdmk64f120m/hardware_init.o
 .debug_ranges  0x00000000000011e0       0xb0 ./KSDK/boards/frdmk64f120m/pin_mux.o
 .debug_ranges  0x0000000000001290       0x10 ./BSP/KSDK/startup.o
 .debug_ranges  0x00000000000012a0       0x58 ./BSP/bsp_ser.o
 .debug_ranges  0x00000000000012f8       0x20 ./BSP/cpu_bsp.o
 .debug_ranges  0x0000000000001318       0x48 ./APP/app.o

.debug_line     0x0000000000000000     0xe51b
 .debug_line    0x0000000000000000      0x32c ./uCOS-III/Source/os_cfg_app.o
 .debug_line    0x000000000000032c      0x841 ./uCOS-III/Source/os_core.o
 .debug_line    0x0000000000000b6d      0x36c ./uCOS-III/Source/os_dbg.o
 .debug_line    0x0000000000000ed9      0x52a ./uCOS-III/Source/os_flag.o
 .debug_line    0x0000000000001403      0x2ff ./uCOS-III/Source/os_mem.o
 .debug_line    0x0000000000001702      0x3ef ./uCOS-III/Source/os_msg.o
 .debug_line    0x0000000000001af1      0x4e7 ./uCOS-III/Source/os_mutex.o
 .debug_line    0x0000000000001fd8      0x2bc ./uCOS-III/Source/os_prio.o
 .debug_line    0x0000000000002294      0x4a6 ./uCOS-III/Source/os_q.o
 .debug_line    0x000000000000273a      0x4b3 ./uCOS-III/Source/os_sem.o
 .debug_line    0x0000000000002bed      0x436 ./uCOS-III/Source/os_stat.o
 .debug_line    0x0000000000003023      0x7ab ./uCOS-III/Source/os_task.o
 .debug_line    0x00000000000037ce      0x498 ./uCOS-III/Source/os_tick.o
 .debug_line    0x0000000000003c66      0x3f6 ./uCOS-III/Source/os_time.o
 .debug_line    0x000000000000405c      0x51a ./uCOS-III/Source/os_tmr.o
 .debug_line    0x0000000000004576      0x309 ./uCOS-III/Source/os_var.o
 .debug_line    0x000000000000487f      0x150 ./uCOS-III/Ports/ARM-Cortex-M4/Generic/GNU/os_cpu_a.o
 .debug_line    0x00000000000049cf      0x5f1 ./uCOS-III/Ports/ARM-Cortex-M4/Generic/GNU/os_cpu_c.o
 .debug_line    0x0000000000004fc0      0x291 ./uC-LIB/lib_math.o
 .debug_line    0x0000000000005251      0x70d ./uC-LIB/lib_mem.o
 .debug_line    0x000000000000595e      0x641 ./uC-LIB/lib_str.o
 .debug_line    0x0000000000005f9f       0xf8 ./uC-CPU/ARM-Cortex-M4/GNU/cpu_a.o
 .debug_line    0x0000000000006097      0x373 ./uC-CPU/cpu_core.o
 .debug_line    0x000000000000640a      0x358 ./KSDK/platform/system/interrupt/src/fsl_interrupt_manager.o
 .debug_line    0x0000000000006762      0x5eb ./KSDK/platform/system/clock/MK64F12/fsl_clock_K64F12.o
 .debug_line    0x0000000000006d4d      0x38d ./KSDK/platform/system/clock/fsl_clock_manager.o
 .debug_line    0x00000000000070da      0x38f ./KSDK/platform/startup/MK64F12/system_MK64F12.o
 .debug_line    0x0000000000007469      0x9a0 ./KSDK/platform/osa/src/fsl_os_abstraction_ucosiii.o
 .debug_line    0x0000000000007e09      0x63f ./KSDK/platform/hal/uart/fsl_uart_hal.o
 .debug_line    0x0000000000008448      0x99b ./KSDK/platform/hal/sim/MK64F12/fsl_sim_hal_K64F12.o
 .debug_line    0x0000000000008de3      0x6d6 ./KSDK/platform/hal/sim/fsl_sim_hal.o
 .debug_line    0x00000000000094b9      0x48a ./KSDK/platform/hal/mcg/fsl_mcg_hal.o
 .debug_line    0x0000000000009943      0x31f ./KSDK/platform/hal/gpio/fsl_gpio_hal.o
 .debug_line    0x0000000000009c62      0xff6 ./KSDK/platform/drivers/uart/src/fsl_uart_driver.o
 .debug_line    0x000000000000ac58      0x2e0 ./KSDK/platform/drivers/uart/common/fsl_uart_common.o
 .debug_line    0x000000000000af38      0xb5c ./KSDK/platform/drivers/gpio/src/fsl_gpio_driver.o
 .debug_line    0x000000000000ba94      0x2e0 ./KSDK/platform/drivers/gpio/common/fsl_gpio_common.o
 .debug_line    0x000000000000bd74      0x393 ./KSDK/boards/frdmk64f120m/gpio_pins.o
 .debug_line    0x000000000000c107      0x4c2 ./KSDK/boards/frdmk64f120m/hardware_init.o
 .debug_line    0x000000000000c5c9      0x5d9 ./KSDK/boards/frdmk64f120m/pin_mux.o
 .debug_line    0x000000000000cba2       0xe0 ./BSP/KSDK/KDS/startup_MK64F12.o
 .debug_line    0x000000000000cc82      0x23c ./BSP/KSDK/startup.o
 .debug_line    0x000000000000cebe      0x99a ./BSP/bsp_ser.o
 .debug_line    0x000000000000d858      0x3c7 ./BSP/cpu_bsp.o
 .debug_line    0x000000000000dc1f      0x8fc ./APP/app.o

.debug_str      0x0000000000000000     0xae08
 .debug_str     0x0000000000000000      0x600 ./uCOS-III/Source/os_cfg_app.o
                                        0x63c (size before relaxing)
 .debug_str     0x0000000000000600     0x157f ./uCOS-III/Source/os_core.o
                                       0x1894 (size before relaxing)
 .debug_str     0x0000000000001b7f      0x856 ./uCOS-III/Source/os_dbg.o
                                       0x105e (size before relaxing)
 .debug_str     0x00000000000023d5      0x19f ./uCOS-III/Source/os_flag.o
                                       0x1499 (size before relaxing)
 .debug_str     0x0000000000002574      0x10b ./uCOS-III/Source/os_mem.o
                                        0xf98 (size before relaxing)
 .debug_str     0x000000000000267f      0x111 ./uCOS-III/Source/os_msg.o
                                       0x1004 (size before relaxing)
 .debug_str     0x0000000000002790      0x1bb ./uCOS-III/Source/os_mutex.o
                                       0x14a4 (size before relaxing)
 .debug_str     0x000000000000294b       0xea ./uCOS-III/Source/os_prio.o
                                        0x27d (size before relaxing)
 .debug_str     0x0000000000002a35      0x13d ./uCOS-III/Source/os_q.o
                                       0x143d (size before relaxing)
 .debug_str     0x0000000000002b72      0x143 ./uCOS-III/Source/os_sem.o
                                       0x1430 (size before relaxing)
 .debug_str     0x0000000000002cb5      0x13f ./uCOS-III/Source/os_stat.o
                                       0x157d (size before relaxing)
 .debug_str     0x0000000000002df4      0x2ae ./uCOS-III/Source/os_task.o
                                       0x1636 (size before relaxing)
 .debug_str     0x00000000000030a2      0x17b ./uCOS-III/Source/os_tick.o
                                       0x14b9 (size before relaxing)
 .debug_str     0x000000000000321d      0x11e ./uCOS-III/Source/os_time.o
                                       0x1426 (size before relaxing)
 .debug_str     0x000000000000333b      0x1bc ./uCOS-III/Source/os_tmr.o
                                       0x15c3 (size before relaxing)
 .debug_str     0x00000000000034f7       0xa1 ./uCOS-III/Source/os_var.o
                                        0xb8f (size before relaxing)
 .debug_str     0x0000000000003598      0x181 ./uCOS-III/Ports/ARM-Cortex-M4/Generic/GNU/os_cpu_c.o
                                        0x8b2 (size before relaxing)
 .debug_str     0x0000000000003719       0xf5 ./uC-LIB/lib_math.o
                                        0x254 (size before relaxing)
 .debug_str     0x000000000000380e      0x8d6 ./uC-LIB/lib_mem.o
                                        0xada (size before relaxing)
 .debug_str     0x00000000000040e4      0x4fa ./uC-LIB/lib_str.o
                                        0x6d7 (size before relaxing)
 .debug_str     0x00000000000045de      0x2ad ./uC-CPU/cpu_core.o
                                        0x46f (size before relaxing)
 .debug_str     0x000000000000488b      0x63e ./KSDK/platform/system/interrupt/src/fsl_interrupt_manager.o
                                        0x7c8 (size before relaxing)
 .debug_str     0x0000000000004ec9      0x99e ./KSDK/platform/system/clock/MK64F12/fsl_clock_K64F12.o
                                        0xb49 (size before relaxing)
 .debug_str     0x0000000000005867      0x2c8 ./KSDK/platform/system/clock/fsl_clock_manager.o
                                        0x929 (size before relaxing)
 .debug_str     0x0000000000005b2f      0x314 ./KSDK/platform/startup/MK64F12/system_MK64F12.o
                                        0x9a5 (size before relaxing)
 .debug_str     0x0000000000005e43      0x55a ./KSDK/platform/osa/src/fsl_os_abstraction_ucosiii.o
                                       0x1e3c (size before relaxing)
 .debug_str     0x000000000000639d      0xe7c ./KSDK/platform/hal/uart/fsl_uart_hal.o
                                       0x1078 (size before relaxing)
 .debug_str     0x0000000000007219      0x882 ./KSDK/platform/hal/sim/MK64F12/fsl_sim_hal_K64F12.o
                                        0xd88 (size before relaxing)
 .debug_str     0x0000000000007a9b      0xa4f ./KSDK/platform/hal/sim/fsl_sim_hal.o
                                        0xfc5 (size before relaxing)
 .debug_str     0x00000000000084ea      0xbb3 ./KSDK/platform/hal/mcg/fsl_mcg_hal.o
                                        0xd7e (size before relaxing)
 .debug_str     0x000000000000909d      0x1c1 ./KSDK/platform/hal/gpio/fsl_gpio_hal.o
                                        0x37b (size before relaxing)
 .debug_str     0x000000000000925e      0x7ec ./KSDK/platform/drivers/uart/src/fsl_uart_driver.o
                                       0x166f (size before relaxing)
 .debug_str     0x0000000000009a4a       0xa6 ./KSDK/platform/drivers/uart/common/fsl_uart_common.o
                                        0x74c (size before relaxing)
 .debug_str     0x0000000000009af0      0x751 ./KSDK/platform/drivers/gpio/src/fsl_gpio_driver.o
                                        0xfd5 (size before relaxing)
 .debug_str     0x000000000000a241       0xa6 ./KSDK/platform/drivers/gpio/common/fsl_gpio_common.o
                                        0x748 (size before relaxing)
 .debug_str     0x000000000000a2e7      0x175 ./KSDK/boards/frdmk64f120m/gpio_pins.o
                                        0x5fb (size before relaxing)
 .debug_str     0x000000000000a45c      0x10a ./KSDK/boards/frdmk64f120m/hardware_init.o
                                        0x2f1 (size before relaxing)
 .debug_str     0x000000000000a566      0x247 ./KSDK/boards/frdmk64f120m/pin_mux.o
                                        0x630 (size before relaxing)
 .debug_str     0x000000000000a7ad      0x114 ./BSP/KSDK/startup.o
                                        0x32f (size before relaxing)
 .debug_str     0x000000000000a8c1      0x24f ./BSP/bsp_ser.o
                                       0x11d6 (size before relaxing)
 .debug_str     0x000000000000ab10       0xf6 ./BSP/cpu_bsp.o
                                        0x2b2 (size before relaxing)
 .debug_str     0x000000000000ac06      0x202 ./APP/app.o
                                       0x17b6 (size before relaxing)

.comment        0x0000000000000000       0x70
 .comment       0x0000000000000000       0x70 ./uCOS-III/Source/os_cfg_app.o
                                         0x71 (size before relaxing)
 .comment       0x0000000000000070       0x71 ./uCOS-III/Source/os_core.o
 .comment       0x0000000000000070       0x71 ./uCOS-III/Source/os_dbg.o
 .comment       0x0000000000000070       0x71 ./uCOS-III/Source/os_flag.o
 .comment       0x0000000000000070       0x71 ./uCOS-III/Source/os_mem.o
 .comment       0x0000000000000070       0x71 ./uCOS-III/Source/os_msg.o
 .comment       0x0000000000000070       0x71 ./uCOS-III/Source/os_mutex.o
 .comment       0x0000000000000070       0x71 ./uCOS-III/Source/os_prio.o
 .comment       0x0000000000000070       0x71 ./uCOS-III/Source/os_q.o
 .comment       0x0000000000000070       0x71 ./uCOS-III/Source/os_sem.o
 .comment       0x0000000000000070       0x71 ./uCOS-III/Source/os_stat.o
 .comment       0x0000000000000070       0x71 ./uCOS-III/Source/os_task.o
 .comment       0x0000000000000070       0x71 ./uCOS-III/Source/os_tick.o
 .comment       0x0000000000000070       0x71 ./uCOS-III/Source/os_time.o
 .comment       0x0000000000000070       0x71 ./uCOS-III/Source/os_tmr.o
 .comment       0x0000000000000070       0x71 ./uCOS-III/Source/os_var.o
 .comment       0x0000000000000070       0x71 ./uCOS-III/Ports/ARM-Cortex-M4/Generic/GNU/os_cpu_c.o
 .comment       0x0000000000000070       0x71 ./uC-LIB/lib_math.o
 .comment       0x0000000000000070       0x71 ./uC-LIB/lib_mem.o
 .comment       0x0000000000000070       0x71 ./uC-LIB/lib_str.o
 .comment       0x0000000000000070       0x71 ./uC-CPU/cpu_core.o
 .comment       0x0000000000000070       0x71 ./KSDK/platform/system/interrupt/src/fsl_interrupt_manager.o
 .comment       0x0000000000000070       0x71 ./KSDK/platform/system/clock/MK64F12/fsl_clock_K64F12.o
 .comment       0x0000000000000070       0x71 ./KSDK/platform/system/clock/fsl_clock_manager.o
 .comment       0x0000000000000070       0x71 ./KSDK/platform/startup/MK64F12/system_MK64F12.o
 .comment       0x0000000000000070       0x71 ./KSDK/platform/osa/src/fsl_os_abstraction_ucosiii.o
 .comment       0x0000000000000070       0x71 ./KSDK/platform/hal/uart/fsl_uart_hal.o
 .comment       0x0000000000000070       0x71 ./KSDK/platform/hal/sim/MK64F12/fsl_sim_hal_K64F12.o
 .comment       0x0000000000000070       0x71 ./KSDK/platform/hal/sim/fsl_sim_hal.o
 .comment       0x0000000000000070       0x71 ./KSDK/platform/hal/mcg/fsl_mcg_hal.o
 .comment       0x0000000000000070       0x71 ./KSDK/platform/hal/gpio/fsl_gpio_hal.o
 .comment       0x0000000000000070       0x71 ./KSDK/platform/drivers/uart/src/fsl_uart_driver.o
 .comment       0x0000000000000070       0x71 ./KSDK/platform/drivers/uart/common/fsl_uart_common.o
 .comment       0x0000000000000070       0x71 ./KSDK/platform/drivers/gpio/src/fsl_gpio_driver.o
 .comment       0x0000000000000070       0x71 ./KSDK/platform/drivers/gpio/common/fsl_gpio_common.o
 .comment       0x0000000000000070       0x71 ./KSDK/boards/frdmk64f120m/gpio_pins.o
 .comment       0x0000000000000070       0x71 ./KSDK/boards/frdmk64f120m/hardware_init.o
 .comment       0x0000000000000070       0x71 ./KSDK/boards/frdmk64f120m/pin_mux.o
 .comment       0x0000000000000070       0x71 ./BSP/KSDK/startup.o
 .comment       0x0000000000000070       0x71 ./BSP/bsp_ser.o
 .comment       0x0000000000000070       0x71 ./BSP/cpu_bsp.o
 .comment       0x0000000000000070       0x71 ./APP/app.o

.debug_frame    0x0000000000000000     0x5908
 .debug_frame   0x0000000000000000       0x28 ./uCOS-III/Source/os_cfg_app.o
 .debug_frame   0x0000000000000028      0x444 ./uCOS-III/Source/os_core.o
 .debug_frame   0x000000000000046c       0x2c ./uCOS-III/Source/os_dbg.o
 .debug_frame   0x0000000000000498      0x184 ./uCOS-III/Source/os_flag.o
 .debug_frame   0x000000000000061c       0xa8 ./uCOS-III/Source/os_mem.o
 .debug_frame   0x00000000000006c4       0x9c ./uCOS-III/Source/os_msg.o
 .debug_frame   0x0000000000000760      0x178 ./uCOS-III/Source/os_mutex.o
 .debug_frame   0x00000000000008d8       0x84 ./uCOS-III/Source/os_prio.o
 .debug_frame   0x000000000000095c      0x164 ./uCOS-III/Source/os_q.o
 .debug_frame   0x0000000000000ac0      0x164 ./uCOS-III/Source/os_sem.o
 .debug_frame   0x0000000000000c24       0x90 ./uCOS-III/Source/os_stat.o
 .debug_frame   0x0000000000000cb4      0x364 ./uCOS-III/Source/os_task.o
 .debug_frame   0x0000000000001018      0x100 ./uCOS-III/Source/os_tick.o
 .debug_frame   0x0000000000001118       0xd0 ./uCOS-III/Source/os_time.o
 .debug_frame   0x00000000000011e8      0x1d4 ./uCOS-III/Source/os_tmr.o
 .debug_frame   0x00000000000013bc      0x150 ./uCOS-III/Ports/ARM-Cortex-M4/Generic/GNU/os_cpu_c.o
 .debug_frame   0x000000000000150c       0x88 ./uC-LIB/lib_math.o
 .debug_frame   0x0000000000001594      0x378 ./uC-LIB/lib_mem.o
 .debug_frame   0x000000000000190c      0x2f8 ./uC-LIB/lib_str.o
 .debug_frame   0x0000000000001c04      0x254 ./uC-CPU/cpu_core.o
 .debug_frame   0x0000000000001e58       0x60 ./KSDK/platform/system/interrupt/src/fsl_interrupt_manager.o
 .debug_frame   0x0000000000001eb8      0x350 ./KSDK/platform/system/clock/MK64F12/fsl_clock_K64F12.o
 .debug_frame   0x0000000000002208       0xd0 ./KSDK/platform/system/clock/fsl_clock_manager.o
 .debug_frame   0x00000000000022d8       0x44 ./KSDK/platform/startup/MK64F12/system_MK64F12.o
 .debug_frame   0x000000000000231c      0x440 ./KSDK/platform/osa/src/fsl_os_abstraction_ucosiii.o
 .debug_frame   0x000000000000275c      0x310 ./KSDK/platform/hal/uart/fsl_uart_hal.o
 .debug_frame   0x0000000000002a6c      0x940 ./KSDK/platform/hal/sim/MK64F12/fsl_sim_hal_K64F12.o
 .debug_frame   0x00000000000033ac      0x2ec ./KSDK/platform/hal/sim/fsl_sim_hal.o
 .debug_frame   0x0000000000003698      0x200 ./KSDK/platform/hal/mcg/fsl_mcg_hal.o
 .debug_frame   0x0000000000003898       0x50 ./KSDK/platform/hal/gpio/fsl_gpio_hal.o
 .debug_frame   0x00000000000038e8      0x4a4 ./KSDK/platform/drivers/uart/src/fsl_uart_driver.o
 .debug_frame   0x0000000000003d8c      0x3ac ./KSDK/platform/drivers/gpio/src/fsl_gpio_driver.o
 .debug_frame   0x0000000000004138       0x70 ./KSDK/boards/frdmk64f120m/hardware_init.o
 .debug_frame   0x00000000000041a8      0x2b0 ./KSDK/boards/frdmk64f120m/pin_mux.o
 .debug_frame   0x0000000000004458       0x2c ./BSP/KSDK/startup.o
 .debug_frame   0x0000000000004484      0x154 ./BSP/bsp_ser.o
 .debug_frame   0x00000000000045d8       0x70 ./BSP/cpu_bsp.o
 .debug_frame   0x0000000000004648      0x124 ./APP/app.o
 .debug_frame   0x000000000000476c       0x3c /usr/lib/gcc/arm-none-eabi/6.2.0/../../../../arm-none-eabi/lib/armv7e-m/fpu/libm.a(lib_a-s_cos.o)
 .debug_frame   0x00000000000047a8       0x3c /usr/lib/gcc/arm-none-eabi/6.2.0/../../../../arm-none-eabi/lib/armv7e-m/fpu/libm.a(lib_a-s_sin.o)
 .debug_frame   0x00000000000047e4       0x54 /usr/lib/gcc/arm-none-eabi/6.2.0/../../../../arm-none-eabi/lib/armv7e-m/fpu/libm.a(lib_a-w_exp.o)
 .debug_frame   0x0000000000004838       0x54 /usr/lib/gcc/arm-none-eabi/6.2.0/../../../../arm-none-eabi/lib/armv7e-m/fpu/libm.a(lib_a-e_exp.o)
 .debug_frame   0x000000000000488c       0x44 /usr/lib/gcc/arm-none-eabi/6.2.0/../../../../arm-none-eabi/lib/armv7e-m/fpu/libm.a(lib_a-e_rem_pio2.o)
 .debug_frame   0x00000000000048d0       0x68 /usr/lib/gcc/arm-none-eabi/6.2.0/../../../../arm-none-eabi/lib/armv7e-m/fpu/libm.a(lib_a-k_cos.o)
 .debug_frame   0x0000000000004938       0x50 /usr/lib/gcc/arm-none-eabi/6.2.0/../../../../arm-none-eabi/lib/armv7e-m/fpu/libm.a(lib_a-k_rem_pio2.o)
 .debug_frame   0x0000000000004988       0x68 /usr/lib/gcc/arm-none-eabi/6.2.0/../../../../arm-none-eabi/lib/armv7e-m/fpu/libm.a(lib_a-k_sin.o)
 .debug_frame   0x00000000000049f0       0x20 /usr/lib/gcc/arm-none-eabi/6.2.0/../../../../arm-none-eabi/lib/armv7e-m/fpu/libm.a(lib_a-s_fabs.o)
 .debug_frame   0x0000000000004a10       0x20 /usr/lib/gcc/arm-none-eabi/6.2.0/../../../../arm-none-eabi/lib/armv7e-m/fpu/libm.a(lib_a-s_finite.o)
 .debug_frame   0x0000000000004a30       0x30 /usr/lib/gcc/arm-none-eabi/6.2.0/../../../../arm-none-eabi/lib/armv7e-m/fpu/libm.a(lib_a-s_floor.o)
 .debug_frame   0x0000000000004a60       0x20 /usr/lib/gcc/arm-none-eabi/6.2.0/../../../../arm-none-eabi/lib/armv7e-m/fpu/libm.a(lib_a-s_matherr.o)
 .debug_frame   0x0000000000004a80       0x2c /usr/lib/gcc/arm-none-eabi/6.2.0/../../../../arm-none-eabi/lib/armv7e-m/fpu/libm.a(lib_a-s_scalbn.o)
 .debug_frame   0x0000000000004aac       0x20 /usr/lib/gcc/arm-none-eabi/6.2.0/../../../../arm-none-eabi/lib/armv7e-m/fpu/libm.a(lib_a-s_copysign.o)
 .debug_frame   0x0000000000004acc       0xac /usr/lib/gcc/arm-none-eabi/6.2.0/armv7e-m/fpu/libgcc.a(_arm_addsubdf3.o)
 .debug_frame   0x0000000000004b78       0x50 /usr/lib/gcc/arm-none-eabi/6.2.0/armv7e-m/fpu/libgcc.a(_arm_muldivdf3.o)
 .debug_frame   0x0000000000004bc8       0xc4 /usr/lib/gcc/arm-none-eabi/6.2.0/armv7e-m/fpu/libgcc.a(_arm_cmpdf2.o)
 .debug_frame   0x0000000000004c8c       0x24 /usr/lib/gcc/arm-none-eabi/6.2.0/armv7e-m/fpu/libgcc.a(_arm_fixdfsi.o)
 .debug_frame   0x0000000000004cb0       0x24 /usr/lib/gcc/arm-none-eabi/6.2.0/armv7e-m/fpu/libgcc.a(_arm_truncdfsf2.o)
 .debug_frame   0x0000000000004cd4       0x40 /usr/lib/gcc/arm-none-eabi/6.2.0/../../../../arm-none-eabi/lib/armv7e-m/fpu/libg_nano.a(lib_a-assert.o)
 .debug_frame   0x0000000000004d14       0x20 /usr/lib/gcc/arm-none-eabi/6.2.0/../../../../arm-none-eabi/lib/armv7e-m/fpu/libg_nano.a(lib_a-atexit.o)
 .debug_frame   0x0000000000004d34       0x20 /usr/lib/gcc/arm-none-eabi/6.2.0/../../../../arm-none-eabi/lib/armv7e-m/fpu/libg_nano.a(lib_a-errno.o)
 .debug_frame   0x0000000000004d54       0x28 /usr/lib/gcc/arm-none-eabi/6.2.0/../../../../arm-none-eabi/lib/armv7e-m/fpu/libg_nano.a(lib_a-exit.o)
 .debug_frame   0x0000000000004d7c       0x38 /usr/lib/gcc/arm-none-eabi/6.2.0/../../../../arm-none-eabi/lib/armv7e-m/fpu/libg_nano.a(lib_a-fini.o)
 .debug_frame   0x0000000000004db4       0x64 /usr/lib/gcc/arm-none-eabi/6.2.0/../../../../arm-none-eabi/lib/armv7e-m/fpu/libg_nano.a(lib_a-fprintf.o)
 .debug_frame   0x0000000000004e18       0x2c /usr/lib/gcc/arm-none-eabi/6.2.0/../../../../arm-none-eabi/lib/armv7e-m/fpu/libg_nano.a(lib_a-init.o)
 .debug_frame   0x0000000000004e44       0x30 /usr/lib/gcc/arm-none-eabi/6.2.0/../../../../arm-none-eabi/lib/armv7e-m/fpu/libg_nano.a(lib_a-malloc.o)
 .debug_frame   0x0000000000004e74       0x20 /usr/lib/gcc/arm-none-eabi/6.2.0/../../../../arm-none-eabi/lib/armv7e-m/fpu/libg_nano.a(lib_a-memset.o)
 .debug_frame   0x0000000000004e94       0x2c /usr/lib/gcc/arm-none-eabi/6.2.0/../../../../arm-none-eabi/lib/armv7e-m/fpu/libg_nano.a(lib_a-nano-freer.o)
 .debug_frame   0x0000000000004ec0       0x2c /usr/lib/gcc/arm-none-eabi/6.2.0/../../../../arm-none-eabi/lib/armv7e-m/fpu/libg_nano.a(lib_a-nano-mallocr.o)
 .debug_frame   0x0000000000004eec       0xac /usr/lib/gcc/arm-none-eabi/6.2.0/../../../../arm-none-eabi/lib/armv7e-m/fpu/libg_nano.a(lib_a-nano-vfprintf.o)
 .debug_frame   0x0000000000004f98       0x60 /usr/lib/gcc/arm-none-eabi/6.2.0/../../../../arm-none-eabi/lib/armv7e-m/fpu/libg_nano.a(lib_a-nano-vfprintf_i.o)
 .debug_frame   0x0000000000004ff8       0x2c /usr/lib/gcc/arm-none-eabi/6.2.0/../../../../arm-none-eabi/lib/armv7e-m/fpu/libg_nano.a(lib_a-sbrkr.o)
 .debug_frame   0x0000000000005024       0x40 /usr/lib/gcc/arm-none-eabi/6.2.0/../../../../arm-none-eabi/lib/armv7e-m/fpu/libg_nano.a(lib_a-vsprintf.o)
 .debug_frame   0x0000000000005064       0x40 /usr/lib/gcc/arm-none-eabi/6.2.0/../../../../arm-none-eabi/lib/armv7e-m/fpu/libg_nano.a(lib_a-wbuf.o)
 .debug_frame   0x00000000000050a4       0x2c /usr/lib/gcc/arm-none-eabi/6.2.0/../../../../arm-none-eabi/lib/armv7e-m/fpu/libg_nano.a(lib_a-wsetup.o)
 .debug_frame   0x00000000000050d0       0x34 /usr/lib/gcc/arm-none-eabi/6.2.0/../../../../arm-none-eabi/lib/armv7e-m/fpu/libg_nano.a(lib_a-__atexit.o)
 .debug_frame   0x0000000000005104       0x3c /usr/lib/gcc/arm-none-eabi/6.2.0/../../../../arm-none-eabi/lib/armv7e-m/fpu/libg_nano.a(lib_a-__call_atexit.o)
 .debug_frame   0x0000000000005140       0x28 /usr/lib/gcc/arm-none-eabi/6.2.0/../../../../arm-none-eabi/lib/armv7e-m/fpu/libg_nano.a(lib_a-abort.o)
 .debug_frame   0x0000000000005168       0x68 /usr/lib/gcc/arm-none-eabi/6.2.0/../../../../arm-none-eabi/lib/armv7e-m/fpu/libg_nano.a(lib_a-fflush.o)
 .debug_frame   0x00000000000051d0      0x11c /usr/lib/gcc/arm-none-eabi/6.2.0/../../../../arm-none-eabi/lib/armv7e-m/fpu/libg_nano.a(lib_a-findfp.o)
 .debug_frame   0x00000000000052ec       0x54 /usr/lib/gcc/arm-none-eabi/6.2.0/../../../../arm-none-eabi/lib/armv7e-m/fpu/libg_nano.a(lib_a-fwalk.o)
 .debug_frame   0x0000000000005340       0x58 /usr/lib/gcc/arm-none-eabi/6.2.0/../../../../arm-none-eabi/lib/armv7e-m/fpu/libg_nano.a(lib_a-makebuf.o)
 .debug_frame   0x0000000000005398       0x28 /usr/lib/gcc/arm-none-eabi/6.2.0/../../../../arm-none-eabi/lib/armv7e-m/fpu/libg_nano.a(lib_a-memcpy-stub.o)
 .debug_frame   0x00000000000053c0       0x28 /usr/lib/gcc/arm-none-eabi/6.2.0/../../../../arm-none-eabi/lib/armv7e-m/fpu/libg_nano.a(lib_a-memmove.o)
 .debug_frame   0x00000000000053e8       0x3c /usr/lib/gcc/arm-none-eabi/6.2.0/../../../../arm-none-eabi/lib/armv7e-m/fpu/libg_nano.a(lib_a-nano-reallocr.o)
 .debug_frame   0x0000000000005424       0x90 /usr/lib/gcc/arm-none-eabi/6.2.0/../../../../arm-none-eabi/lib/armv7e-m/fpu/libg_nano.a(lib_a-nano-svfprintf.o)
 .debug_frame   0x00000000000054b4       0x5c /usr/lib/gcc/arm-none-eabi/6.2.0/../../../../arm-none-eabi/lib/armv7e-m/fpu/libg_nano.a(lib_a-reent.o)
 .debug_frame   0x0000000000005510       0xcc /usr/lib/gcc/arm-none-eabi/6.2.0/../../../../arm-none-eabi/lib/armv7e-m/fpu/libg_nano.a(lib_a-signal.o)
 .debug_frame   0x00000000000055dc       0x3c /usr/lib/gcc/arm-none-eabi/6.2.0/../../../../arm-none-eabi/lib/armv7e-m/fpu/libg_nano.a(lib_a-signalr.o)
 .debug_frame   0x0000000000005618       0x88 /usr/lib/gcc/arm-none-eabi/6.2.0/../../../../arm-none-eabi/lib/armv7e-m/fpu/libg_nano.a(lib_a-stdio.o)
 .debug_frame   0x00000000000056a0       0x2c /usr/lib/gcc/arm-none-eabi/6.2.0/../../../../arm-none-eabi/lib/armv7e-m/fpu/libg_nano.a(lib_a-writer.o)
 .debug_frame   0x00000000000056cc       0x2c /usr/lib/gcc/arm-none-eabi/6.2.0/../../../../arm-none-eabi/lib/armv7e-m/fpu/libg_nano.a(lib_a-closer.o)
 .debug_frame   0x00000000000056f8       0x2c /usr/lib/gcc/arm-none-eabi/6.2.0/../../../../arm-none-eabi/lib/armv7e-m/fpu/libg_nano.a(lib_a-fstatr.o)
 .debug_frame   0x0000000000005724       0x2c /usr/lib/gcc/arm-none-eabi/6.2.0/../../../../arm-none-eabi/lib/armv7e-m/fpu/libg_nano.a(lib_a-isattyr.o)
 .debug_frame   0x0000000000005750       0x2c /usr/lib/gcc/arm-none-eabi/6.2.0/../../../../arm-none-eabi/lib/armv7e-m/fpu/libg_nano.a(lib_a-lseekr.o)
 .debug_frame   0x000000000000577c       0x20 /usr/lib/gcc/arm-none-eabi/6.2.0/../../../../arm-none-eabi/lib/armv7e-m/fpu/libg_nano.a(lib_a-nano-msizer.o)
 .debug_frame   0x000000000000579c       0x2c /usr/lib/gcc/arm-none-eabi/6.2.0/../../../../arm-none-eabi/lib/armv7e-m/fpu/libg_nano.a(lib_a-readr.o)
 .debug_frame   0x00000000000057c8       0x20 /usr/lib/gcc/arm-none-eabi/6.2.0/../../../../arm-none-eabi/lib/armv7e-m/fpu/libnosys.a(close.o)
 .debug_frame   0x00000000000057e8       0x20 /usr/lib/gcc/arm-none-eabi/6.2.0/../../../../arm-none-eabi/lib/armv7e-m/fpu/libnosys.a(fstat.o)
 .debug_frame   0x0000000000005808       0x20 /usr/lib/gcc/arm-none-eabi/6.2.0/../../../../arm-none-eabi/lib/armv7e-m/fpu/libnosys.a(getpid.o)
 .debug_frame   0x0000000000005828       0x20 /usr/lib/gcc/arm-none-eabi/6.2.0/../../../../arm-none-eabi/lib/armv7e-m/fpu/libnosys.a(isatty.o)
 .debug_frame   0x0000000000005848       0x20 /usr/lib/gcc/arm-none-eabi/6.2.0/../../../../arm-none-eabi/lib/armv7e-m/fpu/libnosys.a(kill.o)
 .debug_frame   0x0000000000005868       0x20 /usr/lib/gcc/arm-none-eabi/6.2.0/../../../../arm-none-eabi/lib/armv7e-m/fpu/libnosys.a(lseek.o)
 .debug_frame   0x0000000000005888       0x20 /usr/lib/gcc/arm-none-eabi/6.2.0/../../../../arm-none-eabi/lib/armv7e-m/fpu/libnosys.a(read.o)
 .debug_frame   0x00000000000058a8       0x20 /usr/lib/gcc/arm-none-eabi/6.2.0/../../../../arm-none-eabi/lib/armv7e-m/fpu/libnosys.a(sbrk.o)
 .debug_frame   0x00000000000058c8       0x20 /usr/lib/gcc/arm-none-eabi/6.2.0/../../../../arm-none-eabi/lib/armv7e-m/fpu/libnosys.a(write.o)
 .debug_frame   0x00000000000058e8       0x20 /usr/lib/gcc/arm-none-eabi/6.2.0/../../../../arm-none-eabi/lib/armv7e-m/fpu/libnosys.a(_exit.o)

.stab           0x0000000000000000       0xcc
 .stab          0x0000000000000000       0x24 /usr/lib/gcc/arm-none-eabi/6.2.0/../../../../arm-none-eabi/lib/armv7e-m/fpu/libnosys.a(close.o)
 .stab          0x0000000000000024       0x18 /usr/lib/gcc/arm-none-eabi/6.2.0/../../../../arm-none-eabi/lib/armv7e-m/fpu/libnosys.a(fstat.o)
                                         0x24 (size before relaxing)
 .stab          0x000000000000003c       0x18 /usr/lib/gcc/arm-none-eabi/6.2.0/../../../../arm-none-eabi/lib/armv7e-m/fpu/libnosys.a(getpid.o)
                                         0x24 (size before relaxing)
 .stab          0x0000000000000054       0x18 /usr/lib/gcc/arm-none-eabi/6.2.0/../../../../arm-none-eabi/lib/armv7e-m/fpu/libnosys.a(isatty.o)
                                         0x24 (size before relaxing)
 .stab          0x000000000000006c       0x18 /usr/lib/gcc/arm-none-eabi/6.2.0/../../../../arm-none-eabi/lib/armv7e-m/fpu/libnosys.a(kill.o)
                                         0x24 (size before relaxing)
 .stab          0x0000000000000084       0x18 /usr/lib/gcc/arm-none-eabi/6.2.0/../../../../arm-none-eabi/lib/armv7e-m/fpu/libnosys.a(lseek.o)
                                         0x24 (size before relaxing)
 .stab          0x000000000000009c       0x18 /usr/lib/gcc/arm-none-eabi/6.2.0/../../../../arm-none-eabi/lib/armv7e-m/fpu/libnosys.a(read.o)
                                         0x24 (size before relaxing)
 .stab          0x00000000000000b4       0x18 /usr/lib/gcc/arm-none-eabi/6.2.0/../../../../arm-none-eabi/lib/armv7e-m/fpu/libnosys.a(write.o)
                                         0x24 (size before relaxing)

.stabstr        0x0000000000000000      0x1b9
 .stabstr       0x0000000000000000      0x1b9 /usr/lib/gcc/arm-none-eabi/6.2.0/../../../../arm-none-eabi/lib/armv7e-m/fpu/libnosys.a(close.o)
